
main.elf:     file format elf32-littleriscv


Disassembly of section .text:

00000000 <_isr_handler>:
       0:	0080006f          	j	8 <_isr_routine>
       4:	1440006f          	j	148 <_start>

00000008 <_isr_routine>:
       8:	f8010113          	addi	sp,sp,-128
       c:	00112023          	sw	ra,0(sp)
      10:	00312423          	sw	gp,8(sp)
      14:	00412623          	sw	tp,12(sp)
      18:	00512823          	sw	t0,16(sp)
      1c:	00612a23          	sw	t1,20(sp)
      20:	00712c23          	sw	t2,24(sp)
      24:	00812e23          	sw	s0,28(sp)
      28:	02912023          	sw	s1,32(sp)
      2c:	02a12223          	sw	a0,36(sp)
      30:	02b12423          	sw	a1,40(sp)
      34:	02c12623          	sw	a2,44(sp)
      38:	02d12823          	sw	a3,48(sp)
      3c:	02e12a23          	sw	a4,52(sp)
      40:	02f12c23          	sw	a5,56(sp)
      44:	03012e23          	sw	a6,60(sp)
      48:	05112023          	sw	a7,64(sp)
      4c:	05212223          	sw	s2,68(sp)
      50:	05312423          	sw	s3,72(sp)
      54:	05412623          	sw	s4,76(sp)
      58:	05512823          	sw	s5,80(sp)
      5c:	05612a23          	sw	s6,84(sp)
      60:	05712c23          	sw	s7,88(sp)
      64:	05812e23          	sw	s8,92(sp)
      68:	07912023          	sw	s9,96(sp)
      6c:	07a12223          	sw	s10,100(sp)
      70:	07b12423          	sw	s11,104(sp)
      74:	07c12623          	sw	t3,108(sp)
      78:	07d12823          	sw	t4,112(sp)
      7c:	07e12a23          	sw	t5,116(sp)
      80:	07f12c23          	sw	t6,120(sp)
      84:	342022f3          	csrr	t0,mcause
      88:	80000337          	lui	t1,0x80000
      8c:	02536463          	bltu	t1,t0,b4 <external_irq>
      90:	00028833          	add	a6,t0,zero
      94:	00b00313          	li	t1,11
      98:	00628463          	beq	t0,t1,a0 <skip_init_args>
      9c:	34102573          	csrr	a0,mepc

000000a0 <skip_init_args>:
      a0:	248000ef          	jal	2e8 <handle_exception>
      a4:	341022f3          	csrr	t0,mepc
      a8:	00428293          	addi	t0,t0,4
      ac:	34129073          	csrw	mepc,t0
      b0:	0180006f          	j	c8 <restore>

000000b4 <external_irq>:
      b4:	800002b7          	lui	t0,0x80000
      b8:	fff28293          	addi	t0,t0,-1 # 7fffffff <_stack_end+0x7fef9877>
      bc:	34202373          	csrr	t1,mcause
      c0:	0062f533          	and	a0,t0,t1
      c4:	1d1000ef          	jal	a94 <handle_interrupt>

000000c8 <restore>:
      c8:	00012083          	lw	ra,0(sp)
      cc:	00812183          	lw	gp,8(sp)
      d0:	00c12203          	lw	tp,12(sp)
      d4:	01012283          	lw	t0,16(sp)
      d8:	01412303          	lw	t1,20(sp)
      dc:	01812383          	lw	t2,24(sp)
      e0:	01c12403          	lw	s0,28(sp)
      e4:	02012483          	lw	s1,32(sp)
      e8:	02412503          	lw	a0,36(sp)
      ec:	02812583          	lw	a1,40(sp)
      f0:	02c12603          	lw	a2,44(sp)
      f4:	03012683          	lw	a3,48(sp)
      f8:	03412703          	lw	a4,52(sp)
      fc:	03812783          	lw	a5,56(sp)
     100:	03c12803          	lw	a6,60(sp)
     104:	04012883          	lw	a7,64(sp)
     108:	04412903          	lw	s2,68(sp)
     10c:	04812983          	lw	s3,72(sp)
     110:	04c12a03          	lw	s4,76(sp)
     114:	05012a83          	lw	s5,80(sp)
     118:	05412b03          	lw	s6,84(sp)
     11c:	05812b83          	lw	s7,88(sp)
     120:	05c12c03          	lw	s8,92(sp)
     124:	06012c83          	lw	s9,96(sp)
     128:	06412d03          	lw	s10,100(sp)
     12c:	06812d83          	lw	s11,104(sp)
     130:	06c12e03          	lw	t3,108(sp)
     134:	07012e83          	lw	t4,112(sp)
     138:	07412f03          	lw	t5,116(sp)
     13c:	07812f83          	lw	t6,120(sp)
     140:	08010113          	addi	sp,sp,128
     144:	30200073          	mret

00000148 <_start>:
     148:	30401073          	csrw	mie,zero
     14c:	00106117          	auipc	sp,0x106
     150:	63c10113          	addi	sp,sp,1596 # 106788 <_stack_end>
     154:	00006197          	auipc	gp,0x6
     158:	24818193          	addi	gp,gp,584 # 639c <__global_pointer>
     15c:	00006517          	auipc	a0,0x6
     160:	9ac50513          	addi	a0,a0,-1620 # 5b08 <welcome_msg>
     164:	00400893          	li	a7,4
     168:	00000073          	ecall
     16c:	161000ef          	jal	acc <main>

00000170 <loop>:
     170:	0000006f          	j	170 <loop>

00000174 <printc>:
     174:	04000737          	lui	a4,0x4000
     178:	04470713          	addi	a4,a4,68 # 4000044 <_stack_end+0x3ef98bc>
     17c:	000106b7          	lui	a3,0x10
     180:	00072783          	lw	a5,0(a4)
     184:	fed7eee3          	bltu	a5,a3,180 <printc+0xc>
     188:	040007b7          	lui	a5,0x4000
     18c:	04a7a023          	sw	a0,64(a5) # 4000040 <_stack_end+0x3ef98b8>
     190:	00008067          	ret

00000194 <print>:
     194:	00054603          	lbu	a2,0(a0)
     198:	02060863          	beqz	a2,1c8 <print+0x34>
     19c:	04000737          	lui	a4,0x4000
     1a0:	040005b7          	lui	a1,0x4000
     1a4:	04470713          	addi	a4,a4,68 # 4000044 <_stack_end+0x3ef98bc>
     1a8:	04058593          	addi	a1,a1,64 # 4000040 <_stack_end+0x3ef98b8>
     1ac:	000106b7          	lui	a3,0x10
     1b0:	00072783          	lw	a5,0(a4)
     1b4:	fed7eee3          	bltu	a5,a3,1b0 <print+0x1c>
     1b8:	00c5a023          	sw	a2,0(a1)
     1bc:	00154603          	lbu	a2,1(a0)
     1c0:	00150513          	addi	a0,a0,1
     1c4:	fe0616e3          	bnez	a2,1b0 <print+0x1c>
     1c8:	00008067          	ret

000001cc <print_dec>:
     1cc:	3b9ad737          	lui	a4,0x3b9ad
     1d0:	040006b7          	lui	a3,0x4000
     1d4:	04000337          	lui	t1,0x4000
     1d8:	ccccd8b7          	lui	a7,0xccccd
     1dc:	a0070713          	addi	a4,a4,-1536 # 3b9aca00 <_stack_end+0x3b8a6278>
     1e0:	04468693          	addi	a3,a3,68 # 4000044 <_stack_end+0x3ef98bc>
     1e4:	04030313          	addi	t1,t1,64 # 4000040 <_stack_end+0x3ef98b8>
     1e8:	ccd88893          	addi	a7,a7,-819 # cccccccd <_stack_end+0xccbc6545>
     1ec:	00a00593          	li	a1,10
     1f0:	00000793          	li	a5,0
     1f4:	00010637          	lui	a2,0x10
     1f8:	04e57663          	bgeu	a0,a4,244 <print_dec+0x78>
     1fc:	00078813          	mv	a6,a5
     200:	00000793          	li	a5,0
     204:	04081063          	bnez	a6,244 <print_dec+0x78>
     208:	03173833          	mulhu	a6,a4,a7
     20c:	fff58593          	addi	a1,a1,-1
     210:	02e57533          	remu	a0,a0,a4
     214:	00385713          	srli	a4,a6,0x3
     218:	fe0590e3          	bnez	a1,1f8 <print_dec+0x2c>
     21c:	02079263          	bnez	a5,240 <print_dec+0x74>
     220:	04000737          	lui	a4,0x4000
     224:	04470713          	addi	a4,a4,68 # 4000044 <_stack_end+0x3ef98bc>
     228:	000106b7          	lui	a3,0x10
     22c:	00072783          	lw	a5,0(a4)
     230:	fed7eee3          	bltu	a5,a3,22c <print_dec+0x60>
     234:	040007b7          	lui	a5,0x4000
     238:	03000713          	li	a4,48
     23c:	04e7a023          	sw	a4,64(a5) # 4000040 <_stack_end+0x3ef98b8>
     240:	00008067          	ret
     244:	02e55833          	divu	a6,a0,a4
     248:	03080813          	addi	a6,a6,48
     24c:	0ff87813          	zext.b	a6,a6
     250:	0006a783          	lw	a5,0(a3) # 10000 <MAP_WIDTH+0x997c>
     254:	fec7eee3          	bltu	a5,a2,250 <print_dec+0x84>
     258:	01032023          	sw	a6,0(t1)
     25c:	00100793          	li	a5,1
     260:	fa9ff06f          	j	208 <print_dec+0x3c>

00000264 <print_hex32>:
     264:	04000737          	lui	a4,0x4000
     268:	04470713          	addi	a4,a4,68 # 4000044 <_stack_end+0x3ef98bc>
     26c:	000106b7          	lui	a3,0x10
     270:	00072783          	lw	a5,0(a4)
     274:	fed7eee3          	bltu	a5,a3,270 <print_hex32+0xc>
     278:	040007b7          	lui	a5,0x4000
     27c:	03000693          	li	a3,48
     280:	04d7a023          	sw	a3,64(a5) # 4000040 <_stack_end+0x3ef98b8>
     284:	04478713          	addi	a4,a5,68
     288:	000106b7          	lui	a3,0x10
     28c:	00072783          	lw	a5,0(a4)
     290:	fed7eee3          	bltu	a5,a3,28c <print_hex32+0x28>
     294:	04000837          	lui	a6,0x4000
     298:	04080813          	addi	a6,a6,64 # 4000040 <_stack_end+0x3ef98b8>
     29c:	07800793          	li	a5,120
     2a0:	04000737          	lui	a4,0x4000
     2a4:	00f82023          	sw	a5,0(a6)
     2a8:	04470713          	addi	a4,a4,68 # 4000044 <_stack_end+0x3ef98bc>
     2ac:	01c00613          	li	a2,28
     2b0:	00900313          	li	t1,9
     2b4:	000106b7          	lui	a3,0x10
     2b8:	ffc00893          	li	a7,-4
     2bc:	00c557b3          	srl	a5,a0,a2
     2c0:	00f7f793          	andi	a5,a5,15
     2c4:	03778593          	addi	a1,a5,55
     2c8:	00f36463          	bltu	t1,a5,2d0 <print_hex32+0x6c>
     2cc:	03078593          	addi	a1,a5,48
     2d0:	00072783          	lw	a5,0(a4)
     2d4:	fed7eee3          	bltu	a5,a3,2d0 <print_hex32+0x6c>
     2d8:	00b82023          	sw	a1,0(a6)
     2dc:	ffc60613          	addi	a2,a2,-4 # fffc <MAP_WIDTH+0x9978>
     2e0:	fd161ee3          	bne	a2,a7,2bc <print_hex32+0x58>
     2e4:	00008067          	ret

000002e8 <handle_exception>:
     2e8:	00200793          	li	a5,2
     2ec:	1af80463          	beq	a6,a5,494 <handle_exception+0x1ac>
     2f0:	00b00793          	li	a5,11
     2f4:	12f80663          	beq	a6,a5,420 <handle_exception+0x138>
     2f8:	14081c63          	bnez	a6,450 <handle_exception+0x168>
     2fc:	00006637          	lui	a2,0x6
     300:	000068b7          	lui	a7,0x6
     304:	04000737          	lui	a4,0x4000
     308:	04000837          	lui	a6,0x4000
     30c:	59060613          	addi	a2,a2,1424 # 6590 <__global_pointer+0x1f4>
     310:	5bf88893          	addi	a7,a7,1471 # 65bf <__global_pointer+0x223>
     314:	04470713          	addi	a4,a4,68 # 4000044 <_stack_end+0x3ef98bc>
     318:	04080813          	addi	a6,a6,64 # 4000040 <_stack_end+0x3ef98b8>
     31c:	00a00593          	li	a1,10
     320:	000106b7          	lui	a3,0x10
     324:	00072783          	lw	a5,0(a4)
     328:	fed7eee3          	bltu	a5,a3,324 <handle_exception+0x3c>
     32c:	00b82023          	sw	a1,0(a6)
     330:	00160613          	addi	a2,a2,1
     334:	00064583          	lbu	a1,0(a2)
     338:	ff1616e3          	bne	a2,a7,324 <handle_exception+0x3c>
     33c:	00006637          	lui	a2,0x6
     340:	000068b7          	lui	a7,0x6
     344:	04000737          	lui	a4,0x4000
     348:	04000837          	lui	a6,0x4000
     34c:	60460613          	addi	a2,a2,1540 # 6604 <__global_pointer+0x268>
     350:	61788893          	addi	a7,a7,1559 # 6617 <__global_pointer+0x27b>
     354:	04470713          	addi	a4,a4,68 # 4000044 <_stack_end+0x3ef98bc>
     358:	04080813          	addi	a6,a6,64 # 4000040 <_stack_end+0x3ef98b8>
     35c:	04500593          	li	a1,69
     360:	000106b7          	lui	a3,0x10
     364:	00072783          	lw	a5,0(a4)
     368:	fed7eee3          	bltu	a5,a3,364 <handle_exception+0x7c>
     36c:	00b82023          	sw	a1,0(a6)
     370:	00160613          	addi	a2,a2,1
     374:	00064583          	lbu	a1,0(a2)
     378:	ff1616e3          	bne	a2,a7,364 <handle_exception+0x7c>
     37c:	04000737          	lui	a4,0x4000
     380:	04470713          	addi	a4,a4,68 # 4000044 <_stack_end+0x3ef98bc>
     384:	000106b7          	lui	a3,0x10
     388:	00072783          	lw	a5,0(a4)
     38c:	fed7eee3          	bltu	a5,a3,388 <handle_exception+0xa0>
     390:	040007b7          	lui	a5,0x4000
     394:	03000693          	li	a3,48
     398:	04d7a023          	sw	a3,64(a5) # 4000040 <_stack_end+0x3ef98b8>
     39c:	04478713          	addi	a4,a5,68
     3a0:	000106b7          	lui	a3,0x10
     3a4:	00072783          	lw	a5,0(a4)
     3a8:	fed7eee3          	bltu	a5,a3,3a4 <handle_exception+0xbc>
     3ac:	04000837          	lui	a6,0x4000
     3b0:	04080813          	addi	a6,a6,64 # 4000040 <_stack_end+0x3ef98b8>
     3b4:	07800793          	li	a5,120
     3b8:	04000737          	lui	a4,0x4000
     3bc:	00f82023          	sw	a5,0(a6)
     3c0:	04470713          	addi	a4,a4,68 # 4000044 <_stack_end+0x3ef98bc>
     3c4:	01c00613          	li	a2,28
     3c8:	00900313          	li	t1,9
     3cc:	000106b7          	lui	a3,0x10
     3d0:	ffc00893          	li	a7,-4
     3d4:	00c557b3          	srl	a5,a0,a2
     3d8:	00f7f793          	andi	a5,a5,15
     3dc:	03778593          	addi	a1,a5,55
     3e0:	00f36463          	bltu	t1,a5,3e8 <handle_exception+0x100>
     3e4:	03078593          	addi	a1,a5,48
     3e8:	00072783          	lw	a5,0(a4)
     3ec:	fed7eee3          	bltu	a5,a3,3e8 <handle_exception+0x100>
     3f0:	00b82023          	sw	a1,0(a6)
     3f4:	ffc60613          	addi	a2,a2,-4
     3f8:	fd161ee3          	bne	a2,a7,3d4 <handle_exception+0xec>
     3fc:	04000737          	lui	a4,0x4000
     400:	04470713          	addi	a4,a4,68 # 4000044 <_stack_end+0x3ef98bc>
     404:	000106b7          	lui	a3,0x10
     408:	00072783          	lw	a5,0(a4)
     40c:	fed7eee3          	bltu	a5,a3,408 <handle_exception+0x120>
     410:	040007b7          	lui	a5,0x4000
     414:	00a00713          	li	a4,10
     418:	04e7a023          	sw	a4,64(a5) # 4000040 <_stack_end+0x3ef98b8>
     41c:	0000006f          	j	41c <handle_exception+0x134>
     420:	00400793          	li	a5,4
     424:	0af88a63          	beq	a7,a5,4d8 <handle_exception+0x1f0>
     428:	0f089463          	bne	a7,a6,510 <handle_exception+0x228>
     42c:	04000737          	lui	a4,0x4000
     430:	04470713          	addi	a4,a4,68 # 4000044 <_stack_end+0x3ef98bc>
     434:	000106b7          	lui	a3,0x10
     438:	00072783          	lw	a5,0(a4)
     43c:	fed7eee3          	bltu	a5,a3,438 <handle_exception+0x150>
     440:	040007b7          	lui	a5,0x4000
     444:	0ff57513          	zext.b	a0,a0
     448:	04a7a023          	sw	a0,64(a5) # 4000040 <_stack_end+0x3ef98b8>
     44c:	00008067          	ret
     450:	00006637          	lui	a2,0x6
     454:	000068b7          	lui	a7,0x6
     458:	04000737          	lui	a4,0x4000
     45c:	04000837          	lui	a6,0x4000
     460:	5e460613          	addi	a2,a2,1508 # 65e4 <__global_pointer+0x248>
     464:	60088893          	addi	a7,a7,1536 # 6600 <__global_pointer+0x264>
     468:	04470713          	addi	a4,a4,68 # 4000044 <_stack_end+0x3ef98bc>
     46c:	04080813          	addi	a6,a6,64 # 4000040 <_stack_end+0x3ef98b8>
     470:	00a00593          	li	a1,10
     474:	000106b7          	lui	a3,0x10
     478:	00072783          	lw	a5,0(a4)
     47c:	fed7eee3          	bltu	a5,a3,478 <handle_exception+0x190>
     480:	00b82023          	sw	a1,0(a6)
     484:	00160613          	addi	a2,a2,1
     488:	00064583          	lbu	a1,0(a2)
     48c:	ff1616e3          	bne	a2,a7,478 <handle_exception+0x190>
     490:	eadff06f          	j	33c <handle_exception+0x54>
     494:	00006637          	lui	a2,0x6
     498:	000068b7          	lui	a7,0x6
     49c:	04000737          	lui	a4,0x4000
     4a0:	04000837          	lui	a6,0x4000
     4a4:	5c060613          	addi	a2,a2,1472 # 65c0 <__global_pointer+0x224>
     4a8:	5e288893          	addi	a7,a7,1506 # 65e2 <__global_pointer+0x246>
     4ac:	04470713          	addi	a4,a4,68 # 4000044 <_stack_end+0x3ef98bc>
     4b0:	04080813          	addi	a6,a6,64 # 4000040 <_stack_end+0x3ef98b8>
     4b4:	00a00593          	li	a1,10
     4b8:	000106b7          	lui	a3,0x10
     4bc:	00072783          	lw	a5,0(a4)
     4c0:	fed7eee3          	bltu	a5,a3,4bc <handle_exception+0x1d4>
     4c4:	00b82023          	sw	a1,0(a6)
     4c8:	00160613          	addi	a2,a2,1
     4cc:	00064583          	lbu	a1,0(a2)
     4d0:	ff1616e3          	bne	a2,a7,4bc <handle_exception+0x1d4>
     4d4:	e69ff06f          	j	33c <handle_exception+0x54>
     4d8:	00054603          	lbu	a2,0(a0)
     4dc:	02060a63          	beqz	a2,510 <handle_exception+0x228>
     4e0:	04000737          	lui	a4,0x4000
     4e4:	040005b7          	lui	a1,0x4000
     4e8:	04470713          	addi	a4,a4,68 # 4000044 <_stack_end+0x3ef98bc>
     4ec:	04058593          	addi	a1,a1,64 # 4000040 <_stack_end+0x3ef98b8>
     4f0:	000106b7          	lui	a3,0x10
     4f4:	00072783          	lw	a5,0(a4)
     4f8:	fed7eee3          	bltu	a5,a3,4f4 <handle_exception+0x20c>
     4fc:	00c5a023          	sw	a2,0(a1)
     500:	00154603          	lbu	a2,1(a0)
     504:	00150513          	addi	a0,a0,1
     508:	fe0616e3          	bnez	a2,4f4 <handle_exception+0x20c>
     50c:	00008067          	ret
     510:	00008067          	ret

00000514 <nextprime>:
     514:	00200793          	li	a5,2
     518:	02a7c063          	blt	a5,a0,538 <nextprime+0x24>
     51c:	00100693          	li	a3,1
     520:	00a05863          	blez	a0,530 <nextprime+0x1c>
     524:	fff50793          	addi	a5,a0,-1
     528:	00f037b3          	snez	a5,a5
     52c:	00278693          	addi	a3,a5,2
     530:	00068513          	mv	a0,a3
     534:	00008067          	ret
     538:	00150513          	addi	a0,a0,1
     53c:	00156693          	ori	a3,a0,1
     540:	00300793          	li	a5,3
     544:	02f6e733          	rem	a4,a3,a5
     548:	4016d613          	srai	a2,a3,0x1
     54c:	00260613          	addi	a2,a2,2
     550:	00178793          	addi	a5,a5,1
     554:	00070a63          	beqz	a4,568 <nextprime+0x54>
     558:	fcf60ce3          	beq	a2,a5,530 <nextprime+0x1c>
     55c:	02f6e733          	rem	a4,a3,a5
     560:	00178793          	addi	a5,a5,1
     564:	fe071ae3          	bnez	a4,558 <nextprime+0x44>
     568:	00268693          	addi	a3,a3,2 # 10002 <MAP_WIDTH+0x997e>
     56c:	fd5ff06f          	j	540 <nextprime+0x2c>

00000570 <enable_interrupt>:
     570:	30486073          	csrsi	mie,16
     574:	3001e073          	csrsi	mstatus,3
     578:	00008067          	ret

0000057c <run_init>:
     57c:	30486073          	csrsi	mie,16
     580:	3001e073          	csrsi	mstatus,3
     584:	000086b7          	lui	a3,0x8
     588:	040007b7          	lui	a5,0x4000
     58c:	69f68693          	addi	a3,a3,1695 # 869f <MAP_WIDTH+0x201b>
     590:	02d7a423          	sw	a3,40(a5) # 4000028 <_stack_end+0x3ef98a0>
     594:	00100693          	li	a3,1
     598:	02d7a623          	sw	a3,44(a5)
     59c:	00700713          	li	a4,7
     5a0:	02e7a223          	sw	a4,36(a5)
     5a4:	00008067          	ret

000005a8 <decode_color>:
     5a8:	000067b7          	lui	a5,0x6
     5ac:	2b078793          	addi	a5,a5,688 # 62b0 <player_x+0x8>
     5b0:	0007a883          	lw	a7,0(a5)
     5b4:	0047a803          	lw	a6,4(a5)
     5b8:	0087a583          	lw	a1,8(a5)
     5bc:	00c7a603          	lw	a2,12(a5)
     5c0:	0107a683          	lw	a3,16(a5)
     5c4:	0147a703          	lw	a4,20(a5)
     5c8:	0187a783          	lw	a5,24(a5)
     5cc:	fe010113          	addi	sp,sp,-32
     5d0:	01112223          	sw	a7,4(sp)
     5d4:	00f12e23          	sw	a5,28(sp)
     5d8:	01012423          	sw	a6,8(sp)
     5dc:	00b12623          	sw	a1,12(sp)
     5e0:	00c12823          	sw	a2,16(sp)
     5e4:	00d12a23          	sw	a3,20(sp)
     5e8:	00e12c23          	sw	a4,24(sp)
     5ec:	00700793          	li	a5,7
     5f0:	00a7ec63          	bltu	a5,a0,608 <decode_color+0x60>
     5f4:	00251513          	slli	a0,a0,0x2
     5f8:	00250533          	add	a0,a0,sp
     5fc:	00452503          	lw	a0,4(a0)
     600:	02010113          	addi	sp,sp,32
     604:	00008067          	ret
     608:	00000513          	li	a0,0
     60c:	02010113          	addi	sp,sp,32
     610:	00008067          	ret

00000614 <make_bar>:
     614:	000067b7          	lui	a5,0x6
     618:	f7010113          	addi	sp,sp,-144
     61c:	2b078793          	addi	a5,a5,688 # 62b0 <player_x+0x8>
     620:	08912223          	sw	s1,132(sp)
     624:	09212023          	sw	s2,128(sp)
     628:	000096b7          	lui	a3,0x9
     62c:	0000a737          	lui	a4,0xa
     630:	0007a903          	lw	s2,0(a5)
     634:	0047a483          	lw	s1,4(a5)
     638:	0087a383          	lw	t2,8(a5)
     63c:	00c7a283          	lw	t0,12(a5)
     640:	0107af83          	lw	t6,16(a5)
     644:	0147af03          	lw	t5,20(a5)
     648:	0187ae83          	lw	t4,24(a5)
     64c:	ac068693          	addi	a3,a3,-1344 # 8ac0 <MAP_WIDTH+0x243c>
     650:	3c070713          	addi	a4,a4,960 # a3c0 <MAP_WIDTH+0x3d3c>
     654:	666668b7          	lui	a7,0x66666
     658:	08812423          	sw	s0,136(sp)
     65c:	07312e23          	sw	s3,124(sp)
     660:	08112623          	sw	ra,140(sp)
     664:	07412c23          	sw	s4,120(sp)
     668:	07512a23          	sw	s5,116(sp)
     66c:	07612823          	sw	s6,112(sp)
     670:	07712623          	sw	s7,108(sp)
     674:	07812423          	sw	s8,104(sp)
     678:	07912223          	sw	s9,100(sp)
     67c:	07a12023          	sw	s10,96(sp)
     680:	05b12e23          	sw	s11,92(sp)
     684:	00050413          	mv	s0,a0
     688:	00d50833          	add	a6,a0,a3
     68c:	00e509b3          	add	s3,a0,a4
     690:	66788893          	addi	a7,a7,1639 # 66666667 <_stack_end+0x6655fedf>
     694:	00700e13          	li	t3,7
     698:	03410313          	addi	t1,sp,52
     69c:	ec080713          	addi	a4,a6,-320
     6a0:	00000693          	li	a3,0
     6a4:	031697b3          	mulh	a5,a3,a7
     6a8:	41f6d513          	srai	a0,a3,0x1f
     6ac:	03212a23          	sw	s2,52(sp)
     6b0:	02912c23          	sw	s1,56(sp)
     6b4:	02712e23          	sw	t2,60(sp)
     6b8:	04512023          	sw	t0,64(sp)
     6bc:	05f12223          	sw	t6,68(sp)
     6c0:	05e12423          	sw	t5,72(sp)
     6c4:	05d12623          	sw	t4,76(sp)
     6c8:	4077d793          	srai	a5,a5,0x7
     6cc:	40a787b3          	sub	a5,a5,a0
     6d0:	00279793          	slli	a5,a5,0x2
     6d4:	00f587b3          	add	a5,a1,a5
     6d8:	0007a503          	lw	a0,0(a5)
     6dc:	00251793          	slli	a5,a0,0x2
     6e0:	006787b3          	add	a5,a5,t1
     6e4:	2eae6263          	bltu	t3,a0,9c8 <__heap_size+0x1c8>
     6e8:	0007a783          	lw	a5,0(a5)
     6ec:	00170713          	addi	a4,a4,1
     6f0:	00c686b3          	add	a3,a3,a2
     6f4:	fef70fa3          	sb	a5,-1(a4)
     6f8:	fae816e3          	bne	a6,a4,6a4 <make_bar+0x90>
     6fc:	14080813          	addi	a6,a6,320
     700:	f9381ee3          	bne	a6,s3,69c <make_bar+0x88>
     704:	418000ef          	jal	b1c <get_map>
     708:	000018b7          	lui	a7,0x1
     70c:	6b788893          	addi	a7,a7,1719 # 16b7 <cos+0x183>
     710:	7ff40713          	addi	a4,s0,2047
     714:	00f00793          	li	a5,15
     718:	4b870713          	addi	a4,a4,1208
     71c:	011408b3          	add	a7,s0,a7
     720:	00a7c863          	blt	a5,a0,730 <make_bar+0x11c>
     724:	fff54793          	not	a5,a0
     728:	41f7d793          	srai	a5,a5,0x1f
     72c:	00f577b3          	and	a5,a0,a5
     730:	fff54693          	not	a3,a0
     734:	41f6d693          	srai	a3,a3,0x1f
     738:	00178793          	addi	a5,a5,1
     73c:	00d7f7b3          	and	a5,a5,a3
     740:	00179613          	slli	a2,a5,0x1
     744:	00f60633          	add	a2,a2,a5
     748:	01260693          	addi	a3,a2,18
     74c:	02d12623          	sw	a3,44(sp)
     750:	01560693          	addi	a3,a2,21
     754:	00d12423          	sw	a3,8(sp)
     758:	01860693          	addi	a3,a2,24
     75c:	00d12623          	sw	a3,12(sp)
     760:	01b60693          	addi	a3,a2,27
     764:	00d12823          	sw	a3,16(sp)
     768:	01e60693          	addi	a3,a2,30
     76c:	00d12a23          	sw	a3,20(sp)
     770:	02160693          	addi	a3,a2,33
     774:	00d12c23          	sw	a3,24(sp)
     778:	02460693          	addi	a3,a2,36
     77c:	00d12e23          	sw	a3,28(sp)
     780:	02760693          	addi	a3,a2,39
     784:	02d12023          	sw	a3,32(sp)
     788:	02a60693          	addi	a3,a2,42
     78c:	fd300313          	li	t1,-45
     790:	02d12223          	sw	a3,36(sp)
     794:	02d60693          	addi	a3,a2,45
     798:	00360493          	addi	s1,a2,3
     79c:	00660393          	addi	t2,a2,6
     7a0:	00960d93          	addi	s11,a2,9
     7a4:	00c60d13          	addi	s10,a2,12
     7a8:	00f60c93          	addi	s9,a2,15
     7ac:	02d12423          	sw	a3,40(sp)
     7b0:	40830333          	sub	t1,t1,s0
     7b4:	fff00593          	li	a1,-1
     7b8:	00100c13          	li	s8,1
     7bc:	00200b93          	li	s7,2
     7c0:	00300b13          	li	s6,3
     7c4:	00400a93          	li	s5,4
     7c8:	00500a13          	li	s4,5
     7cc:	00600993          	li	s3,6
     7d0:	00700913          	li	s2,7
     7d4:	00a00293          	li	t0,10
     7d8:	00b00f93          	li	t6,11
     7dc:	00c00f13          	li	t5,12
     7e0:	00d00e93          	li	t4,13
     7e4:	00e00e13          	li	t3,14
     7e8:	13c0006f          	j	924 <__heap_size+0x124>
     7ec:	00c68833          	add	a6,a3,a2
     7f0:	01040833          	add	a6,s0,a6
     7f4:	00080023          	sb	zero,0(a6)
     7f8:	00f00813          	li	a6,15
     7fc:	13078063          	beq	a5,a6,91c <__heap_size+0x11c>
     800:	00968833          	add	a6,a3,s1
     804:	01040833          	add	a6,s0,a6
     808:	00080023          	sb	zero,0(a6)
     80c:	11c78863          	beq	a5,t3,91c <__heap_size+0x11c>
     810:	00768833          	add	a6,a3,t2
     814:	01040833          	add	a6,s0,a6
     818:	00080023          	sb	zero,0(a6)
     81c:	11d78063          	beq	a5,t4,91c <__heap_size+0x11c>
     820:	01b68833          	add	a6,a3,s11
     824:	01040833          	add	a6,s0,a6
     828:	00080023          	sb	zero,0(a6)
     82c:	0fe78863          	beq	a5,t5,91c <__heap_size+0x11c>
     830:	01a68833          	add	a6,a3,s10
     834:	01040833          	add	a6,s0,a6
     838:	00080023          	sb	zero,0(a6)
     83c:	0ff78063          	beq	a5,t6,91c <__heap_size+0x11c>
     840:	01968833          	add	a6,a3,s9
     844:	01040833          	add	a6,s0,a6
     848:	00080023          	sb	zero,0(a6)
     84c:	0c578863          	beq	a5,t0,91c <__heap_size+0x11c>
     850:	02c12803          	lw	a6,44(sp)
     854:	01068833          	add	a6,a3,a6
     858:	01040833          	add	a6,s0,a6
     85c:	00080023          	sb	zero,0(a6)
     860:	00900813          	li	a6,9
     864:	0b078c63          	beq	a5,a6,91c <__heap_size+0x11c>
     868:	00812803          	lw	a6,8(sp)
     86c:	00d80833          	add	a6,a6,a3
     870:	01040833          	add	a6,s0,a6
     874:	00080023          	sb	zero,0(a6)
     878:	00800813          	li	a6,8
     87c:	0b078063          	beq	a5,a6,91c <__heap_size+0x11c>
     880:	00c12803          	lw	a6,12(sp)
     884:	00d80833          	add	a6,a6,a3
     888:	01040833          	add	a6,s0,a6
     88c:	00080023          	sb	zero,0(a6)
     890:	09278663          	beq	a5,s2,91c <__heap_size+0x11c>
     894:	01012803          	lw	a6,16(sp)
     898:	00d80833          	add	a6,a6,a3
     89c:	01040833          	add	a6,s0,a6
     8a0:	00080023          	sb	zero,0(a6)
     8a4:	07378c63          	beq	a5,s3,91c <__heap_size+0x11c>
     8a8:	01412803          	lw	a6,20(sp)
     8ac:	01068833          	add	a6,a3,a6
     8b0:	01040833          	add	a6,s0,a6
     8b4:	00080023          	sb	zero,0(a6)
     8b8:	07478263          	beq	a5,s4,91c <__heap_size+0x11c>
     8bc:	01812803          	lw	a6,24(sp)
     8c0:	01068833          	add	a6,a3,a6
     8c4:	01040833          	add	a6,s0,a6
     8c8:	00080023          	sb	zero,0(a6)
     8cc:	05578863          	beq	a5,s5,91c <__heap_size+0x11c>
     8d0:	01c12803          	lw	a6,28(sp)
     8d4:	01068833          	add	a6,a3,a6
     8d8:	01040833          	add	a6,s0,a6
     8dc:	00080023          	sb	zero,0(a6)
     8e0:	03678e63          	beq	a5,s6,91c <__heap_size+0x11c>
     8e4:	02012803          	lw	a6,32(sp)
     8e8:	01068833          	add	a6,a3,a6
     8ec:	01040833          	add	a6,s0,a6
     8f0:	00080023          	sb	zero,0(a6)
     8f4:	03778463          	beq	a5,s7,91c <__heap_size+0x11c>
     8f8:	02412803          	lw	a6,36(sp)
     8fc:	01068833          	add	a6,a3,a6
     900:	01040833          	add	a6,s0,a6
     904:	00080023          	sb	zero,0(a6)
     908:	01878a63          	beq	a5,s8,91c <__heap_size+0x11c>
     90c:	02812803          	lw	a6,40(sp)
     910:	010686b3          	add	a3,a3,a6
     914:	00d406b3          	add	a3,s0,a3
     918:	00068023          	sb	zero,0(a3)
     91c:	14070713          	addi	a4,a4,320
     920:	0ae88e63          	beq	a7,a4,9dc <__heap_size+0x1dc>
     924:	00e306b3          	add	a3,t1,a4
     928:	ec0542e3          	bltz	a0,7ec <make_bar+0x1d8>
     92c:	fcb709a3          	sb	a1,-45(a4)
     930:	eaa05ee3          	blez	a0,7ec <make_bar+0x1d8>
     934:	fcb70b23          	sb	a1,-42(a4)
     938:	eaac5ae3          	bge	s8,a0,7ec <make_bar+0x1d8>
     93c:	fcb70ca3          	sb	a1,-39(a4)
     940:	eaabd6e3          	bge	s7,a0,7ec <make_bar+0x1d8>
     944:	fcb70e23          	sb	a1,-36(a4)
     948:	eaab52e3          	bge	s6,a0,7ec <make_bar+0x1d8>
     94c:	fcb70fa3          	sb	a1,-33(a4)
     950:	e8aadee3          	bge	s5,a0,7ec <make_bar+0x1d8>
     954:	feb70123          	sb	a1,-30(a4)
     958:	e8aa5ae3          	bge	s4,a0,7ec <make_bar+0x1d8>
     95c:	feb702a3          	sb	a1,-27(a4)
     960:	e8a9d6e3          	bge	s3,a0,7ec <make_bar+0x1d8>
     964:	feb70423          	sb	a1,-24(a4)
     968:	e8a952e3          	bge	s2,a0,7ec <make_bar+0x1d8>
     96c:	feb705a3          	sb	a1,-21(a4)
     970:	00800813          	li	a6,8
     974:	e6a85ce3          	bge	a6,a0,7ec <make_bar+0x1d8>
     978:	feb70723          	sb	a1,-18(a4)
     97c:	00900813          	li	a6,9
     980:	e6a856e3          	bge	a6,a0,7ec <make_bar+0x1d8>
     984:	feb708a3          	sb	a1,-15(a4)
     988:	e6a2d2e3          	bge	t0,a0,7ec <make_bar+0x1d8>
     98c:	feb70a23          	sb	a1,-12(a4)
     990:	e4afdee3          	bge	t6,a0,7ec <make_bar+0x1d8>
     994:	feb70ba3          	sb	a1,-9(a4)
     998:	e4af5ae3          	bge	t5,a0,7ec <make_bar+0x1d8>
     99c:	feb70d23          	sb	a1,-6(a4)
     9a0:	e4aed6e3          	bge	t4,a0,7ec <make_bar+0x1d8>
     9a4:	feb70ea3          	sb	a1,-3(a4)
     9a8:	e5c502e3          	beq	a0,t3,7ec <make_bar+0x1d8>
     9ac:	00b70023          	sb	a1,0(a4)
     9b0:	14070713          	addi	a4,a4,320
     9b4:	03170463          	beq	a4,a7,9dc <__heap_size+0x1dc>
     9b8:	fcb709a3          	sb	a1,-45(a4)
     9bc:	00e306b3          	add	a3,t1,a4
     9c0:	f6a04ae3          	bgtz	a0,934 <__heap_size+0x134>
     9c4:	e29ff06f          	j	7ec <make_bar+0x1d8>
     9c8:	00070023          	sb	zero,0(a4)
     9cc:	00170713          	addi	a4,a4,1
     9d0:	d30706e3          	beq	a4,a6,6fc <make_bar+0xe8>
     9d4:	00c686b3          	add	a3,a3,a2
     9d8:	ccdff06f          	j	6a4 <make_bar+0x90>
     9dc:	08c12083          	lw	ra,140(sp)
     9e0:	08812403          	lw	s0,136(sp)
     9e4:	08412483          	lw	s1,132(sp)
     9e8:	08012903          	lw	s2,128(sp)
     9ec:	07c12983          	lw	s3,124(sp)
     9f0:	07812a03          	lw	s4,120(sp)
     9f4:	07412a83          	lw	s5,116(sp)
     9f8:	07012b03          	lw	s6,112(sp)
     9fc:	06c12b83          	lw	s7,108(sp)
     a00:	06812c03          	lw	s8,104(sp)
     a04:	06412c83          	lw	s9,100(sp)
     a08:	06012d03          	lw	s10,96(sp)
     a0c:	05c12d83          	lw	s11,92(sp)
     a10:	09010113          	addi	sp,sp,144
     a14:	00008067          	ret

00000a18 <set_vga>:
     a18:	ff010113          	addi	sp,sp,-16
     a1c:	00812423          	sw	s0,8(sp)
     a20:	00006437          	lui	s0,0x6
     a24:	28442783          	lw	a5,644(s0) # 6284 <active_buffer.1>
     a28:	00112623          	sw	ra,12(sp)
     a2c:	00058613          	mv	a2,a1
     a30:	00050593          	mv	a1,a0
     a34:	04078063          	beqz	a5,a74 <set_vga+0x5c>
     a38:	08000537          	lui	a0,0x8000
     a3c:	bd9ff0ef          	jal	614 <make_bar>
     a40:	040007b7          	lui	a5,0x4000
     a44:	08000737          	lui	a4,0x8000
     a48:	10e7a223          	sw	a4,260(a5) # 4000104 <_stack_end+0x3ef997c>
     a4c:	040007b7          	lui	a5,0x4000
     a50:	00100713          	li	a4,1
     a54:	10e7a023          	sw	a4,256(a5) # 4000100 <_stack_end+0x3ef9978>
     a58:	28442783          	lw	a5,644(s0)
     a5c:	00c12083          	lw	ra,12(sp)
     a60:	0017b793          	seqz	a5,a5
     a64:	28f42223          	sw	a5,644(s0)
     a68:	00812403          	lw	s0,8(sp)
     a6c:	01010113          	addi	sp,sp,16
     a70:	00008067          	ret
     a74:	08013537          	lui	a0,0x8013
     a78:	bff50513          	addi	a0,a0,-1025 # 8012bff <_stack_end+0x7f0c477>
     a7c:	b99ff0ef          	jal	614 <make_bar>
     a80:	08013737          	lui	a4,0x8013
     a84:	040007b7          	lui	a5,0x4000
     a88:	bff70713          	addi	a4,a4,-1025 # 8012bff <_stack_end+0x7f0c477>
     a8c:	10e7a223          	sw	a4,260(a5) # 4000104 <_stack_end+0x3ef997c>
     a90:	fbdff06f          	j	a4c <set_vga+0x34>

00000a94 <handle_interrupt>:
     a94:	01000793          	li	a5,16
     a98:	00f50463          	beq	a0,a5,aa0 <handle_interrupt+0xc>
     a9c:	00008067          	ret
     aa0:	040007b7          	lui	a5,0x4000
     aa4:	0207a023          	sw	zero,32(a5) # 4000020 <_stack_end+0x3ef9898>
     aa8:	00006737          	lui	a4,0x6
     aac:	28072783          	lw	a5,640(a4) # 6280 <timeoutcount.0>
     ab0:	00a00693          	li	a3,10
     ab4:	00178793          	addi	a5,a5,1
     ab8:	00d78663          	beq	a5,a3,ac4 <handle_interrupt+0x30>
     abc:	28f72023          	sw	a5,640(a4)
     ac0:	00008067          	ret
     ac4:	28072023          	sw	zero,640(a4)
     ac8:	09c0006f          	j	b64 <add_frame_time>

00000acc <main>:
     acc:	00006537          	lui	a0,0x6
     ad0:	ff010113          	addi	sp,sp,-16
     ad4:	61850513          	addi	a0,a0,1560 # 6618 <__global_pointer+0x27c>
     ad8:	00112623          	sw	ra,12(sp)
     adc:	eb8ff0ef          	jal	194 <print>
     ae0:	30486073          	csrsi	mie,16
     ae4:	3001e073          	csrsi	mstatus,3
     ae8:	000086b7          	lui	a3,0x8
     aec:	040007b7          	lui	a5,0x4000
     af0:	69f68693          	addi	a3,a3,1695 # 869f <MAP_WIDTH+0x201b>
     af4:	02d7a423          	sw	a3,40(a5) # 4000028 <_stack_end+0x3ef98a0>
     af8:	00100693          	li	a3,1
     afc:	02d7a623          	sw	a3,44(a5)
     b00:	00700713          	li	a4,7
     b04:	02e7a223          	sw	a4,36(a5)
     b08:	544040ef          	jal	504c <game_loop>
     b0c:	ffdff06f          	j	b08 <main+0x3c>

00000b10 <get_colors>:
     b10:	00006537          	lui	a0,0x6
     b14:	ba050513          	addi	a0,a0,-1120 # 5ba0 <colors>
     b18:	00008067          	ret

00000b1c <get_map>:
     b1c:	000067b7          	lui	a5,0x6
     b20:	2907a503          	lw	a0,656(a5) # 6290 <active_map>
     b24:	00008067          	ret

00000b28 <get_btn>:
     b28:	040007b7          	lui	a5,0x4000
     b2c:	0d07a503          	lw	a0,208(a5) # 40000d0 <_stack_end+0x3ef9948>
     b30:	00157513          	andi	a0,a0,1
     b34:	0ca7a823          	sw	a0,208(a5)
     b38:	00008067          	ret

00000b3c <get_level_change>:
     b3c:	040007b7          	lui	a5,0x4000
     b40:	0107a503          	lw	a0,16(a5) # 4000010 <_stack_end+0x3ef9888>
     b44:	00f57513          	andi	a0,a0,15
     b48:	00a7a823          	sw	a0,16(a5)
     b4c:	00008067          	ret

00000b50 <get_mv>:
     b50:	040007b7          	lui	a5,0x4000
     b54:	0107a503          	lw	a0,16(a5) # 4000010 <_stack_end+0x3ef9888>
     b58:	3f057513          	andi	a0,a0,1008
     b5c:	00a7a823          	sw	a0,16(a5)
     b60:	00008067          	ret

00000b64 <add_frame_time>:
     b64:	000066b7          	lui	a3,0x6
     b68:	28c6a783          	lw	a5,652(a3) # 628c <frame_time>
     b6c:	04000737          	lui	a4,0x4000
     b70:	00178793          	addi	a5,a5,1
     b74:	28f6a623          	sw	a5,652(a3)
     b78:	01072783          	lw	a5,16(a4) # 4000010 <_stack_end+0x3ef9888>
     b7c:	3f07f793          	andi	a5,a5,1008
     b80:	00f72823          	sw	a5,16(a4)
     b84:	00078863          	beqz	a5,b94 <add_frame_time+0x30>
     b88:	000067b7          	lui	a5,0x6
     b8c:	00100713          	li	a4,1
     b90:	28e7a423          	sw	a4,648(a5) # 6288 <movement_allowed>
     b94:	00008067          	ret

00000b98 <delay>:
     b98:	00008067          	ret

00000b9c <print_angle>:
     b9c:	ff010113          	addi	sp,sp,-16
     ba0:	00000613          	li	a2,0
     ba4:	00000693          	li	a3,0
     ba8:	00812423          	sw	s0,8(sp)
     bac:	00912223          	sw	s1,4(sp)
     bb0:	00112623          	sw	ra,12(sp)
     bb4:	00050493          	mv	s1,a0
     bb8:	00058413          	mv	s0,a1
     bbc:	431040ef          	jal	57ec <__gedf2>
     bc0:	00055c63          	bgez	a0,bd8 <print_angle+0x3c>
     bc4:	00006537          	lui	a0,0x6
     bc8:	62050513          	addi	a0,a0,1568 # 6620 <__global_pointer+0x284>
     bcc:	dc8ff0ef          	jal	194 <print>
     bd0:	800007b7          	lui	a5,0x80000
     bd4:	00f44433          	xor	s0,s0,a5
     bd8:	000067b7          	lui	a5,0x6
     bdc:	6887a603          	lw	a2,1672(a5) # 6688 <MAP_WIDTH+0x4>
     be0:	68c7a683          	lw	a3,1676(a5)
     be4:	00048513          	mv	a0,s1
     be8:	00040593          	mv	a1,s0
     bec:	5a5040ef          	jal	5990 <__muldf3>
     bf0:	371040ef          	jal	5760 <__fixunsdfsi>
     bf4:	00812403          	lw	s0,8(sp)
     bf8:	00c12083          	lw	ra,12(sp)
     bfc:	00412483          	lw	s1,4(sp)
     c00:	01010113          	addi	sp,sp,16
     c04:	dc8ff06f          	j	1cc <print_dec>

00000c08 <print_coords>:
     c08:	00006537          	lui	a0,0x6
     c0c:	ff010113          	addi	sp,sp,-16
     c10:	62450513          	addi	a0,a0,1572 # 6624 <__global_pointer+0x288>
     c14:	00112623          	sw	ra,12(sp)
     c18:	00812423          	sw	s0,8(sp)
     c1c:	00912223          	sw	s1,4(sp)
     c20:	d74ff0ef          	jal	194 <print>
     c24:	000067b7          	lui	a5,0x6
     c28:	2ac7a583          	lw	a1,684(a5) # 62ac <player_x+0x4>
     c2c:	2a87a503          	lw	a0,680(a5)
     c30:	331040ef          	jal	5760 <__fixunsdfsi>
     c34:	d98ff0ef          	jal	1cc <print_dec>
     c38:	00006537          	lui	a0,0x6
     c3c:	62c50513          	addi	a0,a0,1580 # 662c <__global_pointer+0x290>
     c40:	d54ff0ef          	jal	194 <print>
     c44:	000067b7          	lui	a5,0x6
     c48:	2a47a583          	lw	a1,676(a5) # 62a4 <player_y+0x4>
     c4c:	2a07a503          	lw	a0,672(a5)
     c50:	311040ef          	jal	5760 <__fixunsdfsi>
     c54:	d78ff0ef          	jal	1cc <print_dec>
     c58:	00006537          	lui	a0,0x6
     c5c:	63450513          	addi	a0,a0,1588 # 6634 <__global_pointer+0x298>
     c60:	d34ff0ef          	jal	194 <print>
     c64:	000067b7          	lui	a5,0x6
     c68:	2987a483          	lw	s1,664(a5) # 6298 <player_dir>
     c6c:	29c7a403          	lw	s0,668(a5)
     c70:	00000613          	li	a2,0
     c74:	00000693          	li	a3,0
     c78:	00048513          	mv	a0,s1
     c7c:	00040593          	mv	a1,s0
     c80:	36d040ef          	jal	57ec <__gedf2>
     c84:	00055c63          	bgez	a0,c9c <print_coords+0x94>
     c88:	00006537          	lui	a0,0x6
     c8c:	62050513          	addi	a0,a0,1568 # 6620 <__global_pointer+0x284>
     c90:	d04ff0ef          	jal	194 <print>
     c94:	800007b7          	lui	a5,0x80000
     c98:	00f44433          	xor	s0,s0,a5
     c9c:	000067b7          	lui	a5,0x6
     ca0:	6887a603          	lw	a2,1672(a5) # 6688 <MAP_WIDTH+0x4>
     ca4:	68c7a683          	lw	a3,1676(a5)
     ca8:	00048513          	mv	a0,s1
     cac:	00040593          	mv	a1,s0
     cb0:	4e1040ef          	jal	5990 <__muldf3>
     cb4:	2ad040ef          	jal	5760 <__fixunsdfsi>
     cb8:	d14ff0ef          	jal	1cc <print_dec>
     cbc:	00006537          	lui	a0,0x6
     cc0:	63c50513          	addi	a0,a0,1596 # 663c <__global_pointer+0x2a0>
     cc4:	cd0ff0ef          	jal	194 <print>
     cc8:	000067b7          	lui	a5,0x6
     ccc:	00812403          	lw	s0,8(sp)
     cd0:	00c12083          	lw	ra,12(sp)
     cd4:	00412483          	lw	s1,4(sp)
     cd8:	28c7a503          	lw	a0,652(a5) # 628c <frame_time>
     cdc:	01010113          	addi	sp,sp,16
     ce0:	cecff06f          	j	1cc <print_dec>

00000ce4 <game_init>:
     ce4:	00006737          	lui	a4,0x6
     ce8:	000067b7          	lui	a5,0x6
     cec:	69072e03          	lw	t3,1680(a4) # 6690 <MAP_WIDTH+0xc>
     cf0:	69472e83          	lw	t4,1684(a4)
     cf4:	6987a303          	lw	t1,1688(a5) # 6698 <MAP_WIDTH+0x14>
     cf8:	69c7a383          	lw	t2,1692(a5)
     cfc:	000065b7          	lui	a1,0x6
     d00:	ba058593          	addi	a1,a1,-1120 # 5ba0 <colors>
     d04:	000067b7          	lui	a5,0x6
     d08:	000068b7          	lui	a7,0x6
     d0c:	00006837          	lui	a6,0x6
     d10:	00006637          	lui	a2,0x6
     d14:	50058713          	addi	a4,a1,1280
     d18:	d3010113          	addi	sp,sp,-720
     d1c:	6e058693          	addi	a3,a1,1760
     d20:	28a7a823          	sw	a0,656(a5) # 6290 <active_map>
     d24:	2bc8a423          	sw	t3,680(a7) # 62a8 <player_x>
     d28:	00070793          	mv	a5,a4
     d2c:	2bd8a623          	sw	t4,684(a7)
     d30:	2a682023          	sw	t1,672(a6) # 62a0 <player_y>
     d34:	2a782223          	sw	t2,676(a6)
     d38:	28062c23          	sw	zero,664(a2) # 6298 <player_dir>
     d3c:	28062e23          	sw	zero,668(a2)
     d40:	0007a023          	sw	zero,0(a5)
     d44:	00478793          	addi	a5,a5,4
     d48:	fed79ce3          	bne	a5,a3,d40 <game_init+0x5c>
     d4c:	00006637          	lui	a2,0x6
     d50:	2cc60613          	addi	a2,a2,716 # 62cc <player_x+0x24>
     d54:	00060793          	mv	a5,a2
     d58:	07860813          	addi	a6,a2,120
     d5c:	00c10693          	addi	a3,sp,12
     d60:	0007af03          	lw	t5,0(a5)
     d64:	0047ae83          	lw	t4,4(a5)
     d68:	0087ae03          	lw	t3,8(a5)
     d6c:	00c7a303          	lw	t1,12(a5)
     d70:	0107a883          	lw	a7,16(a5)
     d74:	01e6a023          	sw	t5,0(a3)
     d78:	01d6a223          	sw	t4,4(a3)
     d7c:	01c6a423          	sw	t3,8(a3)
     d80:	0066a623          	sw	t1,12(a3)
     d84:	0116a823          	sw	a7,16(a3)
     d88:	01478793          	addi	a5,a5,20
     d8c:	01468693          	addi	a3,a3,20
     d90:	fd0798e3          	bne	a5,a6,d60 <game_init+0x7c>
     d94:	08410693          	addi	a3,sp,132
     d98:	00068813          	mv	a6,a3
     d9c:	18860893          	addi	a7,a2,392
     da0:	0007af03          	lw	t5,0(a5)
     da4:	0047ae83          	lw	t4,4(a5)
     da8:	0087ae03          	lw	t3,8(a5)
     dac:	00c7a303          	lw	t1,12(a5)
     db0:	01e82023          	sw	t5,0(a6)
     db4:	01d82223          	sw	t4,4(a6)
     db8:	01c82423          	sw	t3,8(a6)
     dbc:	00682623          	sw	t1,12(a6)
     dc0:	01078793          	addi	a5,a5,16
     dc4:	01080813          	addi	a6,a6,16
     dc8:	fd179ce3          	bne	a5,a7,da0 <game_init+0xbc>
     dcc:	0007a303          	lw	t1,0(a5)
     dd0:	19810793          	addi	a5,sp,408
     dd4:	00078893          	mv	a7,a5
     dd8:	00682023          	sw	t1,0(a6)
     ddc:	18c60813          	addi	a6,a2,396
     de0:	2c460613          	addi	a2,a2,708
     de4:	00082283          	lw	t0,0(a6)
     de8:	00482f83          	lw	t6,4(a6)
     dec:	00882f03          	lw	t5,8(a6)
     df0:	00c82e83          	lw	t4,12(a6)
     df4:	01082e03          	lw	t3,16(a6)
     df8:	01482303          	lw	t1,20(a6)
     dfc:	0058a023          	sw	t0,0(a7)
     e00:	01f8a223          	sw	t6,4(a7)
     e04:	01e8a423          	sw	t5,8(a7)
     e08:	01d8a623          	sw	t4,12(a7)
     e0c:	01c8a823          	sw	t3,16(a7)
     e10:	0068aa23          	sw	t1,20(a7)
     e14:	01880813          	addi	a6,a6,24
     e18:	01888893          	addi	a7,a7,24
     e1c:	fcc814e3          	bne	a6,a2,de4 <game_init+0x100>
     e20:	00200613          	li	a2,2
     e24:	02c50a63          	beq	a0,a2,e58 <game_init+0x174>
     e28:	04a64e63          	blt	a2,a0,e84 <game_init+0x1a0>
     e2c:	08050063          	beqz	a0,eac <game_init+0x1c8>
     e30:	00100613          	li	a2,1
     e34:	00c10793          	addi	a5,sp,12
     e38:	00c51c63          	bne	a0,a2,e50 <game_init+0x16c>
     e3c:	0007a603          	lw	a2,0(a5)
     e40:	00478793          	addi	a5,a5,4
     e44:	00470713          	addi	a4,a4,4
     e48:	fec72e23          	sw	a2,-4(a4)
     e4c:	fed798e3          	bne	a5,a3,e3c <game_init+0x158>
     e50:	2d010113          	addi	sp,sp,720
     e54:	00008067          	ret
     e58:	0006a603          	lw	a2,0(a3)
     e5c:	00468693          	addi	a3,a3,4
     e60:	00470713          	addi	a4,a4,4
     e64:	fec72e23          	sw	a2,-4(a4)
     e68:	fef684e3          	beq	a3,a5,e50 <game_init+0x16c>
     e6c:	0006a603          	lw	a2,0(a3)
     e70:	00468693          	addi	a3,a3,4
     e74:	00470713          	addi	a4,a4,4
     e78:	fec72e23          	sw	a2,-4(a4)
     e7c:	fcf69ee3          	bne	a3,a5,e58 <game_init+0x174>
     e80:	fd1ff06f          	j	e50 <game_init+0x16c>
     e84:	00300693          	li	a3,3
     e88:	fcd514e3          	bne	a0,a3,e50 <game_init+0x16c>
     e8c:	0007a683          	lw	a3,0(a5)
     e90:	00478793          	addi	a5,a5,4
     e94:	00470713          	addi	a4,a4,4
     e98:	fed72e23          	sw	a3,-4(a4)
     e9c:	2d010693          	addi	a3,sp,720
     ea0:	fed796e3          	bne	a5,a3,e8c <game_init+0x1a8>
     ea4:	2d010113          	addi	sp,sp,720
     ea8:	00008067          	ret
     eac:	19000693          	li	a3,400
     eb0:	32000713          	li	a4,800
     eb4:	00100793          	li	a5,1
     eb8:	50d5a023          	sw	a3,1280(a1)
     ebc:	50e5a223          	sw	a4,1284(a1)
     ec0:	50f5a423          	sw	a5,1288(a1)
     ec4:	2d010113          	addi	sp,sp,720
     ec8:	00008067          	ret

00000ecc <check_obstacle2>:
     ecc:	fd010113          	addi	sp,sp,-48
     ed0:	01812423          	sw	s8,8(sp)
     ed4:	00006c37          	lui	s8,0x6
     ed8:	ba0c0c13          	addi	s8,s8,-1120 # 5ba0 <colors>
     edc:	02812423          	sw	s0,40(sp)
     ee0:	03212023          	sw	s2,32(sp)
     ee4:	01412c23          	sw	s4,24(sp)
     ee8:	01512a23          	sw	s5,20(sp)
     eec:	01612823          	sw	s6,16(sp)
     ef0:	01712623          	sw	s7,12(sp)
     ef4:	01912223          	sw	s9,4(sp)
     ef8:	02112623          	sw	ra,44(sp)
     efc:	02912223          	sw	s1,36(sp)
     f00:	01312e23          	sw	s3,28(sp)
     f04:	00050a13          	mv	s4,a0
     f08:	00058a93          	mv	s5,a1
     f0c:	00060b13          	mv	s6,a2
     f10:	00068b93          	mv	s7,a3
     f14:	500c0413          	addi	s0,s8,1280
     f18:	00000913          	li	s2,0
     f1c:	07800c93          	li	s9,120
     f20:	00042483          	lw	s1,0(s0)
     f24:	00442983          	lw	s3,4(s0)
     f28:	fe748513          	addi	a0,s1,-25
     f2c:	0134e7b3          	or	a5,s1,s3
     f30:	06078663          	beqz	a5,f9c <check_obstacle2+0xd0>
     f34:	079040ef          	jal	57ac <__floatsidf>
     f38:	000a0613          	mv	a2,s4
     f3c:	000a8693          	mv	a3,s5
     f40:	181040ef          	jal	58c0 <__ledf2>
     f44:	00050793          	mv	a5,a0
     f48:	01948513          	addi	a0,s1,25
     f4c:	04f04863          	bgtz	a5,f9c <check_obstacle2+0xd0>
     f50:	05d040ef          	jal	57ac <__floatsidf>
     f54:	000a0613          	mv	a2,s4
     f58:	000a8693          	mv	a3,s5
     f5c:	091040ef          	jal	57ec <__gedf2>
     f60:	00050793          	mv	a5,a0
     f64:	fe798513          	addi	a0,s3,-25
     f68:	0207ca63          	bltz	a5,f9c <check_obstacle2+0xd0>
     f6c:	041040ef          	jal	57ac <__floatsidf>
     f70:	000b0613          	mv	a2,s6
     f74:	000b8693          	mv	a3,s7
     f78:	149040ef          	jal	58c0 <__ledf2>
     f7c:	00050793          	mv	a5,a0
     f80:	01998513          	addi	a0,s3,25
     f84:	00f04c63          	bgtz	a5,f9c <check_obstacle2+0xd0>
     f88:	025040ef          	jal	57ac <__floatsidf>
     f8c:	000b0613          	mv	a2,s6
     f90:	000b8693          	mv	a3,s7
     f94:	059040ef          	jal	57ec <__gedf2>
     f98:	04055463          	bgez	a0,fe0 <check_obstacle2+0x114>
     f9c:	00390913          	addi	s2,s2,3
     fa0:	00c40413          	addi	s0,s0,12
     fa4:	f7991ee3          	bne	s2,s9,f20 <check_obstacle2+0x54>
     fa8:	00000513          	li	a0,0
     fac:	02c12083          	lw	ra,44(sp)
     fb0:	02812403          	lw	s0,40(sp)
     fb4:	02412483          	lw	s1,36(sp)
     fb8:	02012903          	lw	s2,32(sp)
     fbc:	01c12983          	lw	s3,28(sp)
     fc0:	01812a03          	lw	s4,24(sp)
     fc4:	01412a83          	lw	s5,20(sp)
     fc8:	01012b03          	lw	s6,16(sp)
     fcc:	00c12b83          	lw	s7,12(sp)
     fd0:	00812c03          	lw	s8,8(sp)
     fd4:	00412c83          	lw	s9,4(sp)
     fd8:	03010113          	addi	sp,sp,48
     fdc:	00008067          	ret
     fe0:	00290793          	addi	a5,s2,2
     fe4:	00279793          	slli	a5,a5,0x2
     fe8:	00fc0c33          	add	s8,s8,a5
     fec:	500c2503          	lw	a0,1280(s8)
     ff0:	fbdff06f          	j	fac <check_obstacle2+0xe0>

00000ff4 <check_for_win>:
     ff4:	fd010113          	addi	sp,sp,-48
     ff8:	01812423          	sw	s8,8(sp)
     ffc:	00006c37          	lui	s8,0x6
    1000:	ba0c0c13          	addi	s8,s8,-1120 # 5ba0 <colors>
    1004:	02812423          	sw	s0,40(sp)
    1008:	03212023          	sw	s2,32(sp)
    100c:	01412c23          	sw	s4,24(sp)
    1010:	01512a23          	sw	s5,20(sp)
    1014:	01612823          	sw	s6,16(sp)
    1018:	01712623          	sw	s7,12(sp)
    101c:	01912223          	sw	s9,4(sp)
    1020:	02112623          	sw	ra,44(sp)
    1024:	02912223          	sw	s1,36(sp)
    1028:	01312e23          	sw	s3,28(sp)
    102c:	00050a13          	mv	s4,a0
    1030:	00058a93          	mv	s5,a1
    1034:	00060b13          	mv	s6,a2
    1038:	00068b93          	mv	s7,a3
    103c:	500c0413          	addi	s0,s8,1280
    1040:	00000913          	li	s2,0
    1044:	07800c93          	li	s9,120
    1048:	00042483          	lw	s1,0(s0)
    104c:	00442983          	lw	s3,4(s0)
    1050:	fe748513          	addi	a0,s1,-25
    1054:	0134e7b3          	or	a5,s1,s3
    1058:	08078663          	beqz	a5,10e4 <check_for_win+0xf0>
    105c:	750040ef          	jal	57ac <__floatsidf>
    1060:	00050613          	mv	a2,a0
    1064:	00058693          	mv	a3,a1
    1068:	000a0513          	mv	a0,s4
    106c:	000a8593          	mv	a1,s5
    1070:	77c040ef          	jal	57ec <__gedf2>
    1074:	00050793          	mv	a5,a0
    1078:	01948513          	addi	a0,s1,25
    107c:	0607c463          	bltz	a5,10e4 <check_for_win+0xf0>
    1080:	72c040ef          	jal	57ac <__floatsidf>
    1084:	00050613          	mv	a2,a0
    1088:	00058693          	mv	a3,a1
    108c:	000a0513          	mv	a0,s4
    1090:	000a8593          	mv	a1,s5
    1094:	02d040ef          	jal	58c0 <__ledf2>
    1098:	00050793          	mv	a5,a0
    109c:	fe798513          	addi	a0,s3,-25
    10a0:	04f04263          	bgtz	a5,10e4 <check_for_win+0xf0>
    10a4:	708040ef          	jal	57ac <__floatsidf>
    10a8:	00050613          	mv	a2,a0
    10ac:	00058693          	mv	a3,a1
    10b0:	000b0513          	mv	a0,s6
    10b4:	000b8593          	mv	a1,s7
    10b8:	734040ef          	jal	57ec <__gedf2>
    10bc:	00050793          	mv	a5,a0
    10c0:	01998513          	addi	a0,s3,25
    10c4:	0207c063          	bltz	a5,10e4 <check_for_win+0xf0>
    10c8:	6e4040ef          	jal	57ac <__floatsidf>
    10cc:	00050613          	mv	a2,a0
    10d0:	00058693          	mv	a3,a1
    10d4:	000b0513          	mv	a0,s6
    10d8:	000b8593          	mv	a1,s7
    10dc:	7e4040ef          	jal	58c0 <__ledf2>
    10e0:	04a05263          	blez	a0,1124 <check_for_win+0x130>
    10e4:	00390913          	addi	s2,s2,3
    10e8:	00c40413          	addi	s0,s0,12
    10ec:	f5991ee3          	bne	s2,s9,1048 <check_for_win+0x54>
    10f0:	02c12083          	lw	ra,44(sp)
    10f4:	02812403          	lw	s0,40(sp)
    10f8:	02412483          	lw	s1,36(sp)
    10fc:	02012903          	lw	s2,32(sp)
    1100:	01c12983          	lw	s3,28(sp)
    1104:	01812a03          	lw	s4,24(sp)
    1108:	01412a83          	lw	s5,20(sp)
    110c:	01012b03          	lw	s6,16(sp)
    1110:	00c12b83          	lw	s7,12(sp)
    1114:	00812c03          	lw	s8,8(sp)
    1118:	00412c83          	lw	s9,4(sp)
    111c:	03010113          	addi	sp,sp,48
    1120:	00008067          	ret
    1124:	00290793          	addi	a5,s2,2
    1128:	00279793          	slli	a5,a5,0x2
    112c:	00fc0c33          	add	s8,s8,a5
    1130:	500c2703          	lw	a4,1280(s8)
    1134:	00100793          	li	a5,1
    1138:	faf71ce3          	bne	a4,a5,10f0 <check_for_win+0xfc>
    113c:	00006537          	lui	a0,0x6
    1140:	64c50513          	addi	a0,a0,1612 # 664c <__global_pointer+0x2b0>
    1144:	850ff0ef          	jal	194 <print>
    1148:	00006437          	lui	s0,0x6
    114c:	29042503          	lw	a0,656(s0) # 6290 <active_map>
    1150:	00150513          	addi	a0,a0,1
    1154:	878ff0ef          	jal	1cc <print_dec>
    1158:	00006537          	lui	a0,0x6
    115c:	65450513          	addi	a0,a0,1620 # 6654 <__global_pointer+0x2b8>
    1160:	834ff0ef          	jal	194 <print>
    1164:	29042503          	lw	a0,656(s0)
    1168:	02812403          	lw	s0,40(sp)
    116c:	02c12083          	lw	ra,44(sp)
    1170:	02412483          	lw	s1,36(sp)
    1174:	02012903          	lw	s2,32(sp)
    1178:	01c12983          	lw	s3,28(sp)
    117c:	01812a03          	lw	s4,24(sp)
    1180:	01412a83          	lw	s5,20(sp)
    1184:	01012b03          	lw	s6,16(sp)
    1188:	00c12b83          	lw	s7,12(sp)
    118c:	00812c03          	lw	s8,8(sp)
    1190:	00412c83          	lw	s9,4(sp)
    1194:	00150513          	addi	a0,a0,1
    1198:	03010113          	addi	sp,sp,48
    119c:	b49ff06f          	j	ce4 <game_init>

000011a0 <check_in_bounds>:
    11a0:	fe010113          	addi	sp,sp,-32
    11a4:	01212823          	sw	s2,16(sp)
    11a8:	01312623          	sw	s3,12(sp)
    11ac:	00060913          	mv	s2,a2
    11b0:	00068993          	mv	s3,a3
    11b4:	00000613          	li	a2,0
    11b8:	00000693          	li	a3,0
    11bc:	00812c23          	sw	s0,24(sp)
    11c0:	00912a23          	sw	s1,20(sp)
    11c4:	00112e23          	sw	ra,28(sp)
    11c8:	00050413          	mv	s0,a0
    11cc:	00058493          	mv	s1,a1
    11d0:	61c040ef          	jal	57ec <__gedf2>
    11d4:	02054863          	bltz	a0,1204 <check_in_bounds+0x64>
    11d8:	000067b7          	lui	a5,0x6
    11dc:	6a47a803          	lw	a6,1700(a5) # 66a4 <MAP_WIDTH+0x20>
    11e0:	6a07a783          	lw	a5,1696(a5)
    11e4:	00040513          	mv	a0,s0
    11e8:	00048593          	mv	a1,s1
    11ec:	00078613          	mv	a2,a5
    11f0:	00080693          	mv	a3,a6
    11f4:	00078413          	mv	s0,a5
    11f8:	00080493          	mv	s1,a6
    11fc:	6c4040ef          	jal	58c0 <__ledf2>
    1200:	02a05263          	blez	a0,1224 <check_in_bounds+0x84>
    1204:	01c12083          	lw	ra,28(sp)
    1208:	01812403          	lw	s0,24(sp)
    120c:	01412483          	lw	s1,20(sp)
    1210:	01012903          	lw	s2,16(sp)
    1214:	00c12983          	lw	s3,12(sp)
    1218:	00000513          	li	a0,0
    121c:	02010113          	addi	sp,sp,32
    1220:	00008067          	ret
    1224:	00000613          	li	a2,0
    1228:	00000693          	li	a3,0
    122c:	00090513          	mv	a0,s2
    1230:	00098593          	mv	a1,s3
    1234:	5b8040ef          	jal	57ec <__gedf2>
    1238:	fc0546e3          	bltz	a0,1204 <check_in_bounds+0x64>
    123c:	00040613          	mv	a2,s0
    1240:	00048693          	mv	a3,s1
    1244:	00090513          	mv	a0,s2
    1248:	00098593          	mv	a1,s3
    124c:	674040ef          	jal	58c0 <__ledf2>
    1250:	01c12083          	lw	ra,28(sp)
    1254:	01812403          	lw	s0,24(sp)
    1258:	01412483          	lw	s1,20(sp)
    125c:	01012903          	lw	s2,16(sp)
    1260:	00c12983          	lw	s3,12(sp)
    1264:	00152513          	slti	a0,a0,1
    1268:	02010113          	addi	sp,sp,32
    126c:	00008067          	ret

00001270 <factorial>:
    1270:	00050793          	mv	a5,a0
    1274:	00100513          	li	a0,1
    1278:	00050693          	mv	a3,a0
    127c:	00f55863          	bge	a0,a5,128c <factorial+0x1c>
    1280:	02f50533          	mul	a0,a0,a5
    1284:	fff78793          	addi	a5,a5,-1
    1288:	fed79ce3          	bne	a5,a3,1280 <factorial+0x10>
    128c:	00008067          	ret

00001290 <pow>:
    1290:	06c05863          	blez	a2,1300 <pow+0x70>
    1294:	fe010113          	addi	sp,sp,-32
    1298:	00006737          	lui	a4,0x6
    129c:	00912a23          	sw	s1,20(sp)
    12a0:	6a872783          	lw	a5,1704(a4) # 66a8 <MAP_WIDTH+0x24>
    12a4:	00058493          	mv	s1,a1
    12a8:	6ac72583          	lw	a1,1708(a4)
    12ac:	00812c23          	sw	s0,24(sp)
    12b0:	01212823          	sw	s2,16(sp)
    12b4:	01312623          	sw	s3,12(sp)
    12b8:	00112e23          	sw	ra,28(sp)
    12bc:	00050413          	mv	s0,a0
    12c0:	00060993          	mv	s3,a2
    12c4:	00000913          	li	s2,0
    12c8:	00078513          	mv	a0,a5
    12cc:	00040613          	mv	a2,s0
    12d0:	00048693          	mv	a3,s1
    12d4:	6bc040ef          	jal	5990 <__muldf3>
    12d8:	00190913          	addi	s2,s2,1
    12dc:	00050793          	mv	a5,a0
    12e0:	ff2994e3          	bne	s3,s2,12c8 <pow+0x38>
    12e4:	01c12083          	lw	ra,28(sp)
    12e8:	01812403          	lw	s0,24(sp)
    12ec:	01412483          	lw	s1,20(sp)
    12f0:	01012903          	lw	s2,16(sp)
    12f4:	00c12983          	lw	s3,12(sp)
    12f8:	02010113          	addi	sp,sp,32
    12fc:	00008067          	ret
    1300:	00006737          	lui	a4,0x6
    1304:	6a872783          	lw	a5,1704(a4) # 66a8 <MAP_WIDTH+0x24>
    1308:	6ac72583          	lw	a1,1708(a4)
    130c:	00078513          	mv	a0,a5
    1310:	00008067          	ret

00001314 <sin>:
    1314:	000067b7          	lui	a5,0x6
    1318:	6b07a603          	lw	a2,1712(a5) # 66b0 <MAP_WIDTH+0x2c>
    131c:	6b47a683          	lw	a3,1716(a5)
    1320:	fd010113          	addi	sp,sp,-48
    1324:	02812423          	sw	s0,40(sp)
    1328:	02912223          	sw	s1,36(sp)
    132c:	02112623          	sw	ra,44(sp)
    1330:	03212023          	sw	s2,32(sp)
    1334:	01312e23          	sw	s3,28(sp)
    1338:	01412c23          	sw	s4,24(sp)
    133c:	01512a23          	sw	s5,20(sp)
    1340:	01612823          	sw	s6,16(sp)
    1344:	01712623          	sw	s7,12(sp)
    1348:	01812423          	sw	s8,8(sp)
    134c:	01912223          	sw	s9,4(sp)
    1350:	01a12023          	sw	s10,0(sp)
    1354:	00050493          	mv	s1,a0
    1358:	00058413          	mv	s0,a1
    135c:	504040ef          	jal	5860 <__gtdf2>
    1360:	1aa04663          	bgtz	a0,150c <sin+0x1f8>
    1364:	000067b7          	lui	a5,0x6
    1368:	6b87a603          	lw	a2,1720(a5) # 66b8 <MAP_WIDTH+0x34>
    136c:	6bc7a683          	lw	a3,1724(a5)
    1370:	00048513          	mv	a0,s1
    1374:	00040593          	mv	a1,s0
    1378:	5b0040ef          	jal	5928 <__ltdf2>
    137c:	00000a13          	li	s4,0
    1380:	16054263          	bltz	a0,14e4 <sin+0x1d0>
    1384:	00000613          	li	a2,0
    1388:	00000693          	li	a3,0
    138c:	00048513          	mv	a0,s1
    1390:	00040593          	mv	a1,s0
    1394:	5b5030ef          	jal	5148 <__adddf3>
    1398:	00050b13          	mv	s6,a0
    139c:	00058b93          	mv	s7,a1
    13a0:	00048613          	mv	a2,s1
    13a4:	00040693          	mv	a3,s0
    13a8:	00048513          	mv	a0,s1
    13ac:	00040593          	mv	a1,s0
    13b0:	5e0040ef          	jal	5990 <__muldf3>
    13b4:	00050613          	mv	a2,a0
    13b8:	00058693          	mv	a3,a1
    13bc:	00048513          	mv	a0,s1
    13c0:	00040593          	mv	a1,s0
    13c4:	5cc040ef          	jal	5990 <__muldf3>
    13c8:	000067b7          	lui	a5,0x6
    13cc:	6c87a603          	lw	a2,1736(a5) # 66c8 <MAP_WIDTH+0x44>
    13d0:	6cc7a683          	lw	a3,1740(a5)
    13d4:	800009b7          	lui	s3,0x80000
    13d8:	00058a93          	mv	s5,a1
    13dc:	00b9c5b3          	xor	a1,s3,a1
    13e0:	00050913          	mv	s2,a0
    13e4:	074040ef          	jal	5458 <__divdf3>
    13e8:	000b0613          	mv	a2,s6
    13ec:	000b8693          	mv	a3,s7
    13f0:	559030ef          	jal	5148 <__adddf3>
    13f4:	000a8693          	mv	a3,s5
    13f8:	00050c93          	mv	s9,a0
    13fc:	00058d13          	mv	s10,a1
    1400:	00090613          	mv	a2,s2
    1404:	00048513          	mv	a0,s1
    1408:	00040593          	mv	a1,s0
    140c:	584040ef          	jal	5990 <__muldf3>
    1410:	00050613          	mv	a2,a0
    1414:	00058693          	mv	a3,a1
    1418:	00048513          	mv	a0,s1
    141c:	00040593          	mv	a1,s0
    1420:	570040ef          	jal	5990 <__muldf3>
    1424:	000067b7          	lui	a5,0x6
    1428:	6d07a603          	lw	a2,1744(a5) # 66d0 <MAP_WIDTH+0x4c>
    142c:	6d47a683          	lw	a3,1748(a5)
    1430:	00050b93          	mv	s7,a0
    1434:	00058c13          	mv	s8,a1
    1438:	020040ef          	jal	5458 <__divdf3>
    143c:	000c8613          	mv	a2,s9
    1440:	000d0693          	mv	a3,s10
    1444:	505030ef          	jal	5148 <__adddf3>
    1448:	00050a93          	mv	s5,a0
    144c:	00058b13          	mv	s6,a1
    1450:	000b8613          	mv	a2,s7
    1454:	000c0693          	mv	a3,s8
    1458:	00048513          	mv	a0,s1
    145c:	00040593          	mv	a1,s0
    1460:	530040ef          	jal	5990 <__muldf3>
    1464:	00050613          	mv	a2,a0
    1468:	00058693          	mv	a3,a1
    146c:	00048513          	mv	a0,s1
    1470:	00040593          	mv	a1,s0
    1474:	51c040ef          	jal	5990 <__muldf3>
    1478:	0135c7b3          	xor	a5,a1,s3
    147c:	00078593          	mv	a1,a5
    1480:	000067b7          	lui	a5,0x6
    1484:	6d87a603          	lw	a2,1752(a5) # 66d8 <MAP_WIDTH+0x54>
    1488:	6dc7a683          	lw	a3,1756(a5)
    148c:	7cd030ef          	jal	5458 <__divdf3>
    1490:	000a8613          	mv	a2,s5
    1494:	000b0693          	mv	a3,s6
    1498:	4b1030ef          	jal	5148 <__adddf3>
    149c:	00058793          	mv	a5,a1
    14a0:	000a0463          	beqz	s4,14a8 <sin+0x194>
    14a4:	00b9c7b3          	xor	a5,s3,a1
    14a8:	02c12083          	lw	ra,44(sp)
    14ac:	02812403          	lw	s0,40(sp)
    14b0:	02412483          	lw	s1,36(sp)
    14b4:	02012903          	lw	s2,32(sp)
    14b8:	01c12983          	lw	s3,28(sp)
    14bc:	01812a03          	lw	s4,24(sp)
    14c0:	01412a83          	lw	s5,20(sp)
    14c4:	01012b03          	lw	s6,16(sp)
    14c8:	00c12b83          	lw	s7,12(sp)
    14cc:	00812c03          	lw	s8,8(sp)
    14d0:	00412c83          	lw	s9,4(sp)
    14d4:	00012d03          	lw	s10,0(sp)
    14d8:	00078593          	mv	a1,a5
    14dc:	03010113          	addi	sp,sp,48
    14e0:	00008067          	ret
    14e4:	000067b7          	lui	a5,0x6
    14e8:	6c07a603          	lw	a2,1728(a5) # 66c0 <MAP_WIDTH+0x3c>
    14ec:	6c47a683          	lw	a3,1732(a5)
    14f0:	00048513          	mv	a0,s1
    14f4:	00040593          	mv	a1,s0
    14f8:	451030ef          	jal	5148 <__adddf3>
    14fc:	00050493          	mv	s1,a0
    1500:	00058413          	mv	s0,a1
    1504:	00100a13          	li	s4,1
    1508:	e7dff06f          	j	1384 <sin+0x70>
    150c:	000067b7          	lui	a5,0x6
    1510:	6c07a603          	lw	a2,1728(a5) # 66c0 <MAP_WIDTH+0x3c>
    1514:	6c47a683          	lw	a3,1732(a5)
    1518:	00048513          	mv	a0,s1
    151c:	00040593          	mv	a1,s0
    1520:	421030ef          	jal	5140 <__subdf3>
    1524:	00050493          	mv	s1,a0
    1528:	00058413          	mv	s0,a1
    152c:	00100a13          	li	s4,1
    1530:	e55ff06f          	j	1384 <sin+0x70>

00001534 <cos>:
    1534:	000067b7          	lui	a5,0x6
    1538:	6b07a603          	lw	a2,1712(a5) # 66b0 <MAP_WIDTH+0x2c>
    153c:	6b47a683          	lw	a3,1716(a5)
    1540:	fc010113          	addi	sp,sp,-64
    1544:	02812c23          	sw	s0,56(sp)
    1548:	02912a23          	sw	s1,52(sp)
    154c:	02112e23          	sw	ra,60(sp)
    1550:	03212823          	sw	s2,48(sp)
    1554:	03312623          	sw	s3,44(sp)
    1558:	03412423          	sw	s4,40(sp)
    155c:	03512223          	sw	s5,36(sp)
    1560:	03612023          	sw	s6,32(sp)
    1564:	00050413          	mv	s0,a0
    1568:	00058493          	mv	s1,a1
    156c:	2f4040ef          	jal	5860 <__gtdf2>
    1570:	26a04063          	bgtz	a0,17d0 <cos+0x29c>
    1574:	000067b7          	lui	a5,0x6
    1578:	6b87a603          	lw	a2,1720(a5) # 66b8 <MAP_WIDTH+0x34>
    157c:	6bc7a683          	lw	a3,1724(a5)
    1580:	00040513          	mv	a0,s0
    1584:	00048593          	mv	a1,s1
    1588:	3a0040ef          	jal	5928 <__ltdf2>
    158c:	10055c63          	bgez	a0,16a4 <cos+0x170>
    1590:	000067b7          	lui	a5,0x6
    1594:	6c07a603          	lw	a2,1728(a5) # 66c0 <MAP_WIDTH+0x3c>
    1598:	6c47a683          	lw	a3,1732(a5)
    159c:	00048593          	mv	a1,s1
    15a0:	00040513          	mv	a0,s0
    15a4:	3a5030ef          	jal	5148 <__adddf3>
    15a8:	00050913          	mv	s2,a0
    15ac:	00058493          	mv	s1,a1
    15b0:	00090613          	mv	a2,s2
    15b4:	00048693          	mv	a3,s1
    15b8:	00090513          	mv	a0,s2
    15bc:	00048593          	mv	a1,s1
    15c0:	3d0040ef          	jal	5990 <__muldf3>
    15c4:	80000437          	lui	s0,0x80000
    15c8:	00b446b3          	xor	a3,s0,a1
    15cc:	00b12623          	sw	a1,12(sp)
    15d0:	00068593          	mv	a1,a3
    15d4:	000066b7          	lui	a3,0x6
    15d8:	6e06a603          	lw	a2,1760(a3) # 66e0 <MAP_WIDTH+0x5c>
    15dc:	6e46a683          	lw	a3,1764(a3)
    15e0:	00a12423          	sw	a0,8(sp)
    15e4:	3ac040ef          	jal	5990 <__muldf3>
    15e8:	000066b7          	lui	a3,0x6
    15ec:	6a86a603          	lw	a2,1704(a3) # 66a8 <MAP_WIDTH+0x24>
    15f0:	6ac6a683          	lw	a3,1708(a3)
    15f4:	355030ef          	jal	5148 <__adddf3>
    15f8:	00050993          	mv	s3,a0
    15fc:	00058a13          	mv	s4,a1
    1600:	00812503          	lw	a0,8(sp)
    1604:	00c12583          	lw	a1,12(sp)
    1608:	00090613          	mv	a2,s2
    160c:	00048693          	mv	a3,s1
    1610:	380040ef          	jal	5990 <__muldf3>
    1614:	00050613          	mv	a2,a0
    1618:	00058693          	mv	a3,a1
    161c:	00090513          	mv	a0,s2
    1620:	00048593          	mv	a1,s1
    1624:	36c040ef          	jal	5990 <__muldf3>
    1628:	000067b7          	lui	a5,0x6
    162c:	6e87a603          	lw	a2,1768(a5) # 66e8 <MAP_WIDTH+0x64>
    1630:	6ec7a683          	lw	a3,1772(a5)
    1634:	00050a93          	mv	s5,a0
    1638:	00058b13          	mv	s6,a1
    163c:	61d030ef          	jal	5458 <__divdf3>
    1640:	00098613          	mv	a2,s3
    1644:	000a0693          	mv	a3,s4
    1648:	301030ef          	jal	5148 <__adddf3>
    164c:	00050993          	mv	s3,a0
    1650:	00058a13          	mv	s4,a1
    1654:	00090613          	mv	a2,s2
    1658:	00048693          	mv	a3,s1
    165c:	000a8513          	mv	a0,s5
    1660:	000b0593          	mv	a1,s6
    1664:	32c040ef          	jal	5990 <__muldf3>
    1668:	00090613          	mv	a2,s2
    166c:	00048693          	mv	a3,s1
    1670:	320040ef          	jal	5990 <__muldf3>
    1674:	0085c7b3          	xor	a5,a1,s0
    1678:	00078593          	mv	a1,a5
    167c:	000067b7          	lui	a5,0x6
    1680:	6f07a603          	lw	a2,1776(a5) # 66f0 <MAP_WIDTH+0x6c>
    1684:	6f47a683          	lw	a3,1780(a5)
    1688:	5d1030ef          	jal	5458 <__divdf3>
    168c:	00098613          	mv	a2,s3
    1690:	000a0693          	mv	a3,s4
    1694:	2b5030ef          	jal	5148 <__adddf3>
    1698:	00050793          	mv	a5,a0
    169c:	00b445b3          	xor	a1,s0,a1
    16a0:	1040006f          	j	17a4 <cos+0x270>
    16a4:	00040613          	mv	a2,s0
    16a8:	00048693          	mv	a3,s1
    16ac:	00040513          	mv	a0,s0
    16b0:	00048593          	mv	a1,s1
    16b4:	01712e23          	sw	s7,28(sp)
    16b8:	2d8040ef          	jal	5990 <__muldf3>
    16bc:	80000737          	lui	a4,0x80000
    16c0:	00b746b3          	xor	a3,a4,a1
    16c4:	00b12423          	sw	a1,8(sp)
    16c8:	00068593          	mv	a1,a3
    16cc:	000066b7          	lui	a3,0x6
    16d0:	6e06a603          	lw	a2,1760(a3) # 66e0 <MAP_WIDTH+0x5c>
    16d4:	6e46a683          	lw	a3,1764(a3)
    16d8:	00050913          	mv	s2,a0
    16dc:	2b4040ef          	jal	5990 <__muldf3>
    16e0:	000066b7          	lui	a3,0x6
    16e4:	6a86a603          	lw	a2,1704(a3) # 66a8 <MAP_WIDTH+0x24>
    16e8:	6ac6a683          	lw	a3,1708(a3)
    16ec:	25d030ef          	jal	5148 <__adddf3>
    16f0:	00812683          	lw	a3,8(sp)
    16f4:	00058b93          	mv	s7,a1
    16f8:	00090613          	mv	a2,s2
    16fc:	00050b13          	mv	s6,a0
    1700:	00048593          	mv	a1,s1
    1704:	00040513          	mv	a0,s0
    1708:	288040ef          	jal	5990 <__muldf3>
    170c:	00050613          	mv	a2,a0
    1710:	00058693          	mv	a3,a1
    1714:	00040513          	mv	a0,s0
    1718:	00048593          	mv	a1,s1
    171c:	274040ef          	jal	5990 <__muldf3>
    1720:	000067b7          	lui	a5,0x6
    1724:	6e87a603          	lw	a2,1768(a5) # 66e8 <MAP_WIDTH+0x64>
    1728:	6ec7a683          	lw	a3,1772(a5)
    172c:	00050a13          	mv	s4,a0
    1730:	00058a93          	mv	s5,a1
    1734:	525030ef          	jal	5458 <__divdf3>
    1738:	000b8693          	mv	a3,s7
    173c:	000b0613          	mv	a2,s6
    1740:	209030ef          	jal	5148 <__adddf3>
    1744:	00050913          	mv	s2,a0
    1748:	00058993          	mv	s3,a1
    174c:	000a0613          	mv	a2,s4
    1750:	000a8693          	mv	a3,s5
    1754:	00040513          	mv	a0,s0
    1758:	00048593          	mv	a1,s1
    175c:	234040ef          	jal	5990 <__muldf3>
    1760:	00050613          	mv	a2,a0
    1764:	00058693          	mv	a3,a1
    1768:	00040513          	mv	a0,s0
    176c:	00048593          	mv	a1,s1
    1770:	220040ef          	jal	5990 <__muldf3>
    1774:	80000737          	lui	a4,0x80000
    1778:	00e5c7b3          	xor	a5,a1,a4
    177c:	00078593          	mv	a1,a5
    1780:	000067b7          	lui	a5,0x6
    1784:	6f07a603          	lw	a2,1776(a5) # 66f0 <MAP_WIDTH+0x6c>
    1788:	6f47a683          	lw	a3,1780(a5)
    178c:	4cd030ef          	jal	5458 <__divdf3>
    1790:	00090613          	mv	a2,s2
    1794:	00098693          	mv	a3,s3
    1798:	1b1030ef          	jal	5148 <__adddf3>
    179c:	01c12b83          	lw	s7,28(sp)
    17a0:	00050793          	mv	a5,a0
    17a4:	03c12083          	lw	ra,60(sp)
    17a8:	03812403          	lw	s0,56(sp)
    17ac:	03412483          	lw	s1,52(sp)
    17b0:	03012903          	lw	s2,48(sp)
    17b4:	02c12983          	lw	s3,44(sp)
    17b8:	02812a03          	lw	s4,40(sp)
    17bc:	02412a83          	lw	s5,36(sp)
    17c0:	02012b03          	lw	s6,32(sp)
    17c4:	00078513          	mv	a0,a5
    17c8:	04010113          	addi	sp,sp,64
    17cc:	00008067          	ret
    17d0:	000067b7          	lui	a5,0x6
    17d4:	6c07a603          	lw	a2,1728(a5) # 66c0 <MAP_WIDTH+0x3c>
    17d8:	6c47a683          	lw	a3,1732(a5)
    17dc:	00048593          	mv	a1,s1
    17e0:	00040513          	mv	a0,s0
    17e4:	15d030ef          	jal	5140 <__subdf3>
    17e8:	00050913          	mv	s2,a0
    17ec:	00058493          	mv	s1,a1
    17f0:	dc1ff06f          	j	15b0 <cos+0x7c>

000017f4 <arctan>:
    17f4:	fd010113          	addi	sp,sp,-48
    17f8:	00000613          	li	a2,0
    17fc:	00000693          	li	a3,0
    1800:	02112623          	sw	ra,44(sp)
    1804:	02812423          	sw	s0,40(sp)
    1808:	02912223          	sw	s1,36(sp)
    180c:	00050413          	mv	s0,a0
    1810:	00058493          	mv	s1,a1
    1814:	03212023          	sw	s2,32(sp)
    1818:	01312e23          	sw	s3,28(sp)
    181c:	01412c23          	sw	s4,24(sp)
    1820:	01512a23          	sw	s5,20(sp)
    1824:	01612823          	sw	s6,16(sp)
    1828:	01712623          	sw	s7,12(sp)
    182c:	01812423          	sw	s8,8(sp)
    1830:	119030ef          	jal	5148 <__adddf3>
    1834:	00050a13          	mv	s4,a0
    1838:	00058a93          	mv	s5,a1
    183c:	00040613          	mv	a2,s0
    1840:	00048693          	mv	a3,s1
    1844:	00040513          	mv	a0,s0
    1848:	00048593          	mv	a1,s1
    184c:	144040ef          	jal	5990 <__muldf3>
    1850:	00050613          	mv	a2,a0
    1854:	00058693          	mv	a3,a1
    1858:	00040513          	mv	a0,s0
    185c:	00048593          	mv	a1,s1
    1860:	130040ef          	jal	5990 <__muldf3>
    1864:	000067b7          	lui	a5,0x6
    1868:	6f87a603          	lw	a2,1784(a5) # 66f8 <MAP_WIDTH+0x74>
    186c:	6fc7a683          	lw	a3,1788(a5)
    1870:	800009b7          	lui	s3,0x80000
    1874:	00058b13          	mv	s6,a1
    1878:	00b9c5b3          	xor	a1,s3,a1
    187c:	00050913          	mv	s2,a0
    1880:	3d9030ef          	jal	5458 <__divdf3>
    1884:	000a0613          	mv	a2,s4
    1888:	000a8693          	mv	a3,s5
    188c:	0bd030ef          	jal	5148 <__adddf3>
    1890:	00050b93          	mv	s7,a0
    1894:	00058c13          	mv	s8,a1
    1898:	00090613          	mv	a2,s2
    189c:	000b0693          	mv	a3,s6
    18a0:	00040513          	mv	a0,s0
    18a4:	00048593          	mv	a1,s1
    18a8:	0e8040ef          	jal	5990 <__muldf3>
    18ac:	00050613          	mv	a2,a0
    18b0:	00058693          	mv	a3,a1
    18b4:	00040513          	mv	a0,s0
    18b8:	00048593          	mv	a1,s1
    18bc:	0d4040ef          	jal	5990 <__muldf3>
    18c0:	000067b7          	lui	a5,0x6
    18c4:	7007a603          	lw	a2,1792(a5) # 6700 <MAP_WIDTH+0x7c>
    18c8:	7047a683          	lw	a3,1796(a5)
    18cc:	00050a13          	mv	s4,a0
    18d0:	00058a93          	mv	s5,a1
    18d4:	385030ef          	jal	5458 <__divdf3>
    18d8:	000b8613          	mv	a2,s7
    18dc:	000c0693          	mv	a3,s8
    18e0:	069030ef          	jal	5148 <__adddf3>
    18e4:	00050b13          	mv	s6,a0
    18e8:	00058b93          	mv	s7,a1
    18ec:	000a0613          	mv	a2,s4
    18f0:	000a8693          	mv	a3,s5
    18f4:	00040513          	mv	a0,s0
    18f8:	00048593          	mv	a1,s1
    18fc:	094040ef          	jal	5990 <__muldf3>
    1900:	00050613          	mv	a2,a0
    1904:	00058693          	mv	a3,a1
    1908:	00040513          	mv	a0,s0
    190c:	00048593          	mv	a1,s1
    1910:	080040ef          	jal	5990 <__muldf3>
    1914:	000067b7          	lui	a5,0x6
    1918:	7087a603          	lw	a2,1800(a5) # 6708 <MAP_WIDTH+0x84>
    191c:	70c7a683          	lw	a3,1804(a5)
    1920:	00058a13          	mv	s4,a1
    1924:	00b9c5b3          	xor	a1,s3,a1
    1928:	00050913          	mv	s2,a0
    192c:	32d030ef          	jal	5458 <__divdf3>
    1930:	000b0613          	mv	a2,s6
    1934:	000b8693          	mv	a3,s7
    1938:	011030ef          	jal	5148 <__adddf3>
    193c:	00050b13          	mv	s6,a0
    1940:	00058b93          	mv	s7,a1
    1944:	00090613          	mv	a2,s2
    1948:	000a0693          	mv	a3,s4
    194c:	00040513          	mv	a0,s0
    1950:	00048593          	mv	a1,s1
    1954:	03c040ef          	jal	5990 <__muldf3>
    1958:	00050613          	mv	a2,a0
    195c:	00058693          	mv	a3,a1
    1960:	00040513          	mv	a0,s0
    1964:	00048593          	mv	a1,s1
    1968:	028040ef          	jal	5990 <__muldf3>
    196c:	000067b7          	lui	a5,0x6
    1970:	7107a603          	lw	a2,1808(a5) # 6710 <MAP_WIDTH+0x8c>
    1974:	7147a683          	lw	a3,1812(a5)
    1978:	00050a13          	mv	s4,a0
    197c:	00058a93          	mv	s5,a1
    1980:	2d9030ef          	jal	5458 <__divdf3>
    1984:	000b0613          	mv	a2,s6
    1988:	000b8693          	mv	a3,s7
    198c:	7bc030ef          	jal	5148 <__adddf3>
    1990:	00050b13          	mv	s6,a0
    1994:	00058b93          	mv	s7,a1
    1998:	000a0613          	mv	a2,s4
    199c:	000a8693          	mv	a3,s5
    19a0:	00040513          	mv	a0,s0
    19a4:	00048593          	mv	a1,s1
    19a8:	7e9030ef          	jal	5990 <__muldf3>
    19ac:	00050613          	mv	a2,a0
    19b0:	00058693          	mv	a3,a1
    19b4:	00040513          	mv	a0,s0
    19b8:	00048593          	mv	a1,s1
    19bc:	7d5030ef          	jal	5990 <__muldf3>
    19c0:	000067b7          	lui	a5,0x6
    19c4:	7187a603          	lw	a2,1816(a5) # 6718 <MAP_WIDTH+0x94>
    19c8:	71c7a683          	lw	a3,1820(a5)
    19cc:	00058a13          	mv	s4,a1
    19d0:	00b9c5b3          	xor	a1,s3,a1
    19d4:	00050913          	mv	s2,a0
    19d8:	281030ef          	jal	5458 <__divdf3>
    19dc:	000b0613          	mv	a2,s6
    19e0:	000b8693          	mv	a3,s7
    19e4:	764030ef          	jal	5148 <__adddf3>
    19e8:	00050b13          	mv	s6,a0
    19ec:	00058b93          	mv	s7,a1
    19f0:	00090613          	mv	a2,s2
    19f4:	000a0693          	mv	a3,s4
    19f8:	00040513          	mv	a0,s0
    19fc:	00048593          	mv	a1,s1
    1a00:	791030ef          	jal	5990 <__muldf3>
    1a04:	00050613          	mv	a2,a0
    1a08:	00058693          	mv	a3,a1
    1a0c:	00040513          	mv	a0,s0
    1a10:	00048593          	mv	a1,s1
    1a14:	77d030ef          	jal	5990 <__muldf3>
    1a18:	000067b7          	lui	a5,0x6
    1a1c:	7207a603          	lw	a2,1824(a5) # 6720 <MAP_WIDTH+0x9c>
    1a20:	7247a683          	lw	a3,1828(a5)
    1a24:	00050a13          	mv	s4,a0
    1a28:	00058a93          	mv	s5,a1
    1a2c:	22d030ef          	jal	5458 <__divdf3>
    1a30:	000b0613          	mv	a2,s6
    1a34:	000b8693          	mv	a3,s7
    1a38:	710030ef          	jal	5148 <__adddf3>
    1a3c:	00050b13          	mv	s6,a0
    1a40:	00058b93          	mv	s7,a1
    1a44:	000a0613          	mv	a2,s4
    1a48:	000a8693          	mv	a3,s5
    1a4c:	00040513          	mv	a0,s0
    1a50:	00048593          	mv	a1,s1
    1a54:	73d030ef          	jal	5990 <__muldf3>
    1a58:	00050613          	mv	a2,a0
    1a5c:	00058693          	mv	a3,a1
    1a60:	00040513          	mv	a0,s0
    1a64:	00048593          	mv	a1,s1
    1a68:	729030ef          	jal	5990 <__muldf3>
    1a6c:	0135c7b3          	xor	a5,a1,s3
    1a70:	00078593          	mv	a1,a5
    1a74:	000067b7          	lui	a5,0x6
    1a78:	7287a603          	lw	a2,1832(a5) # 6728 <MAP_WIDTH+0xa4>
    1a7c:	72c7a683          	lw	a3,1836(a5)
    1a80:	1d9030ef          	jal	5458 <__divdf3>
    1a84:	000b0613          	mv	a2,s6
    1a88:	000b8693          	mv	a3,s7
    1a8c:	6bc030ef          	jal	5148 <__adddf3>
    1a90:	02c12083          	lw	ra,44(sp)
    1a94:	02812403          	lw	s0,40(sp)
    1a98:	02412483          	lw	s1,36(sp)
    1a9c:	02012903          	lw	s2,32(sp)
    1aa0:	01c12983          	lw	s3,28(sp)
    1aa4:	01812a03          	lw	s4,24(sp)
    1aa8:	01412a83          	lw	s5,20(sp)
    1aac:	01012b03          	lw	s6,16(sp)
    1ab0:	00c12b83          	lw	s7,12(sp)
    1ab4:	00812c03          	lw	s8,8(sp)
    1ab8:	03010113          	addi	sp,sp,48
    1abc:	00008067          	ret

00001ac0 <get_angle>:
    1ac0:	fc010113          	addi	sp,sp,-64
    1ac4:	000067b7          	lui	a5,0x6
    1ac8:	02812c23          	sw	s0,56(sp)
    1acc:	02912a23          	sw	s1,52(sp)
    1ad0:	00060413          	mv	s0,a2
    1ad4:	00068493          	mv	s1,a3
    1ad8:	2a87a603          	lw	a2,680(a5) # 62a8 <player_x>
    1adc:	2ac7a683          	lw	a3,684(a5)
    1ae0:	02112e23          	sw	ra,60(sp)
    1ae4:	03212823          	sw	s2,48(sp)
    1ae8:	03312623          	sw	s3,44(sp)
    1aec:	03412423          	sw	s4,40(sp)
    1af0:	03512223          	sw	s5,36(sp)
    1af4:	64c030ef          	jal	5140 <__subdf3>
    1af8:	000067b7          	lui	a5,0x6
    1afc:	2a07a603          	lw	a2,672(a5) # 62a0 <player_y>
    1b00:	2a47a683          	lw	a3,676(a5)
    1b04:	00050913          	mv	s2,a0
    1b08:	00058993          	mv	s3,a1
    1b0c:	00040513          	mv	a0,s0
    1b10:	00048593          	mv	a1,s1
    1b14:	62c030ef          	jal	5140 <__subdf3>
    1b18:	00000613          	li	a2,0
    1b1c:	00000693          	li	a3,0
    1b20:	00050413          	mv	s0,a0
    1b24:	00058493          	mv	s1,a1
    1b28:	00050a13          	mv	s4,a0
    1b2c:	00058a93          	mv	s5,a1
    1b30:	531030ef          	jal	5860 <__gtdf2>
    1b34:	3ca05863          	blez	a0,1f04 <get_angle+0x444>
    1b38:	00040613          	mv	a2,s0
    1b3c:	00048693          	mv	a3,s1
    1b40:	00090513          	mv	a0,s2
    1b44:	00098593          	mv	a1,s3
    1b48:	03612023          	sw	s6,32(sp)
    1b4c:	01712e23          	sw	s7,28(sp)
    1b50:	109030ef          	jal	5458 <__divdf3>
    1b54:	000067b7          	lui	a5,0x6
    1b58:	6ac7a803          	lw	a6,1708(a5) # 66ac <MAP_WIDTH+0x28>
    1b5c:	6a87a783          	lw	a5,1704(a5)
    1b60:	00050413          	mv	s0,a0
    1b64:	00080693          	mv	a3,a6
    1b68:	00078613          	mv	a2,a5
    1b6c:	00058493          	mv	s1,a1
    1b70:	00078b13          	mv	s6,a5
    1b74:	00080b93          	mv	s7,a6
    1b78:	549030ef          	jal	58c0 <__ledf2>
    1b7c:	08a05063          	blez	a0,1bfc <get_angle+0x13c>
    1b80:	00000613          	li	a2,0
    1b84:	00000693          	li	a3,0
    1b88:	00090513          	mv	a0,s2
    1b8c:	00098593          	mv	a1,s3
    1b90:	4d1030ef          	jal	5860 <__gtdf2>
    1b94:	02a05863          	blez	a0,1bc4 <get_angle+0x104>
    1b98:	00090613          	mv	a2,s2
    1b9c:	00098693          	mv	a3,s3
    1ba0:	000a0513          	mv	a0,s4
    1ba4:	000a8593          	mv	a1,s5
    1ba8:	0b1030ef          	jal	5458 <__divdf3>
    1bac:	000b0613          	mv	a2,s6
    1bb0:	000b8693          	mv	a3,s7
    1bb4:	00050493          	mv	s1,a0
    1bb8:	00058413          	mv	s0,a1
    1bbc:	505030ef          	jal	58c0 <__ledf2>
    1bc0:	3aa05c63          	blez	a0,1f78 <get_angle+0x4b8>
    1bc4:	02012b03          	lw	s6,32(sp)
    1bc8:	01c12b83          	lw	s7,28(sp)
    1bcc:	00000793          	li	a5,0
    1bd0:	00000593          	li	a1,0
    1bd4:	03c12083          	lw	ra,60(sp)
    1bd8:	03812403          	lw	s0,56(sp)
    1bdc:	03412483          	lw	s1,52(sp)
    1be0:	03012903          	lw	s2,48(sp)
    1be4:	02c12983          	lw	s3,44(sp)
    1be8:	02812a03          	lw	s4,40(sp)
    1bec:	02412a83          	lw	s5,36(sp)
    1bf0:	00078513          	mv	a0,a5
    1bf4:	04010113          	addi	sp,sp,64
    1bf8:	00008067          	ret
    1bfc:	000067b7          	lui	a5,0x6
    1c00:	7347a803          	lw	a6,1844(a5) # 6734 <MAP_WIDTH+0xb0>
    1c04:	7307a783          	lw	a5,1840(a5)
    1c08:	00040513          	mv	a0,s0
    1c0c:	00080693          	mv	a3,a6
    1c10:	00078613          	mv	a2,a5
    1c14:	00048593          	mv	a1,s1
    1c18:	01812c23          	sw	s8,24(sp)
    1c1c:	00078b13          	mv	s6,a5
    1c20:	00080b93          	mv	s7,a6
    1c24:	3c9030ef          	jal	57ec <__gedf2>
    1c28:	00000613          	li	a2,0
    1c2c:	00000693          	li	a3,0
    1c30:	04055c63          	bgez	a0,1c88 <get_angle+0x1c8>
    1c34:	00090513          	mv	a0,s2
    1c38:	00098593          	mv	a1,s3
    1c3c:	4ed030ef          	jal	5928 <__ltdf2>
    1c40:	02055863          	bgez	a0,1c70 <get_angle+0x1b0>
    1c44:	00090613          	mv	a2,s2
    1c48:	00098693          	mv	a3,s3
    1c4c:	000a0513          	mv	a0,s4
    1c50:	000a8593          	mv	a1,s5
    1c54:	005030ef          	jal	5458 <__divdf3>
    1c58:	000b0613          	mv	a2,s6
    1c5c:	000b8693          	mv	a3,s7
    1c60:	00050493          	mv	s1,a0
    1c64:	00058413          	mv	s0,a1
    1c68:	385030ef          	jal	57ec <__gedf2>
    1c6c:	42055ee3          	bgez	a0,28a8 <get_angle+0xde8>
    1c70:	02012b03          	lw	s6,32(sp)
    1c74:	01c12b83          	lw	s7,28(sp)
    1c78:	01812c03          	lw	s8,24(sp)
    1c7c:	00000793          	li	a5,0
    1c80:	00000593          	li	a1,0
    1c84:	f51ff06f          	j	1bd4 <get_angle+0x114>
    1c88:	00040513          	mv	a0,s0
    1c8c:	00048593          	mv	a1,s1
    1c90:	4b8030ef          	jal	5148 <__adddf3>
    1c94:	00050a13          	mv	s4,a0
    1c98:	00058a93          	mv	s5,a1
    1c9c:	00040613          	mv	a2,s0
    1ca0:	00048693          	mv	a3,s1
    1ca4:	00040513          	mv	a0,s0
    1ca8:	00048593          	mv	a1,s1
    1cac:	4e5030ef          	jal	5990 <__muldf3>
    1cb0:	00050613          	mv	a2,a0
    1cb4:	00058693          	mv	a3,a1
    1cb8:	00040513          	mv	a0,s0
    1cbc:	00048593          	mv	a1,s1
    1cc0:	4d1030ef          	jal	5990 <__muldf3>
    1cc4:	000066b7          	lui	a3,0x6
    1cc8:	6f86a603          	lw	a2,1784(a3) # 66f8 <MAP_WIDTH+0x74>
    1ccc:	6fc6a683          	lw	a3,1788(a3)
    1cd0:	80000937          	lui	s2,0x80000
    1cd4:	00058993          	mv	s3,a1
    1cd8:	00b945b3          	xor	a1,s2,a1
    1cdc:	00a12623          	sw	a0,12(sp)
    1ce0:	778030ef          	jal	5458 <__divdf3>
    1ce4:	000a0613          	mv	a2,s4
    1ce8:	000a8693          	mv	a3,s5
    1cec:	45c030ef          	jal	5148 <__adddf3>
    1cf0:	00c12603          	lw	a2,12(sp)
    1cf4:	00050a13          	mv	s4,a0
    1cf8:	00058a93          	mv	s5,a1
    1cfc:	00098693          	mv	a3,s3
    1d00:	00040513          	mv	a0,s0
    1d04:	00048593          	mv	a1,s1
    1d08:	489030ef          	jal	5990 <__muldf3>
    1d0c:	00050613          	mv	a2,a0
    1d10:	00058693          	mv	a3,a1
    1d14:	00040513          	mv	a0,s0
    1d18:	00048593          	mv	a1,s1
    1d1c:	475030ef          	jal	5990 <__muldf3>
    1d20:	000067b7          	lui	a5,0x6
    1d24:	7007a603          	lw	a2,1792(a5) # 6700 <MAP_WIDTH+0x7c>
    1d28:	7047a683          	lw	a3,1796(a5)
    1d2c:	00050b13          	mv	s6,a0
    1d30:	00058b93          	mv	s7,a1
    1d34:	724030ef          	jal	5458 <__divdf3>
    1d38:	000a0613          	mv	a2,s4
    1d3c:	000a8693          	mv	a3,s5
    1d40:	408030ef          	jal	5148 <__adddf3>
    1d44:	00050a13          	mv	s4,a0
    1d48:	00058a93          	mv	s5,a1
    1d4c:	000b0613          	mv	a2,s6
    1d50:	000b8693          	mv	a3,s7
    1d54:	00040513          	mv	a0,s0
    1d58:	00048593          	mv	a1,s1
    1d5c:	435030ef          	jal	5990 <__muldf3>
    1d60:	00050613          	mv	a2,a0
    1d64:	00058693          	mv	a3,a1
    1d68:	00040513          	mv	a0,s0
    1d6c:	00048593          	mv	a1,s1
    1d70:	421030ef          	jal	5990 <__muldf3>
    1d74:	000066b7          	lui	a3,0x6
    1d78:	7086a603          	lw	a2,1800(a3) # 6708 <MAP_WIDTH+0x84>
    1d7c:	70c6a683          	lw	a3,1804(a3)
    1d80:	00058993          	mv	s3,a1
    1d84:	00b945b3          	xor	a1,s2,a1
    1d88:	00a12623          	sw	a0,12(sp)
    1d8c:	6cc030ef          	jal	5458 <__divdf3>
    1d90:	000a0613          	mv	a2,s4
    1d94:	000a8693          	mv	a3,s5
    1d98:	3b0030ef          	jal	5148 <__adddf3>
    1d9c:	00c12603          	lw	a2,12(sp)
    1da0:	00050a13          	mv	s4,a0
    1da4:	00058a93          	mv	s5,a1
    1da8:	00098693          	mv	a3,s3
    1dac:	00040513          	mv	a0,s0
    1db0:	00048593          	mv	a1,s1
    1db4:	3dd030ef          	jal	5990 <__muldf3>
    1db8:	00050613          	mv	a2,a0
    1dbc:	00058693          	mv	a3,a1
    1dc0:	00040513          	mv	a0,s0
    1dc4:	00048593          	mv	a1,s1
    1dc8:	3c9030ef          	jal	5990 <__muldf3>
    1dcc:	000067b7          	lui	a5,0x6
    1dd0:	7107a603          	lw	a2,1808(a5) # 6710 <MAP_WIDTH+0x8c>
    1dd4:	7147a683          	lw	a3,1812(a5)
    1dd8:	00050b13          	mv	s6,a0
    1ddc:	00058b93          	mv	s7,a1
    1de0:	678030ef          	jal	5458 <__divdf3>
    1de4:	000a0613          	mv	a2,s4
    1de8:	000a8693          	mv	a3,s5
    1dec:	35c030ef          	jal	5148 <__adddf3>
    1df0:	00050a13          	mv	s4,a0
    1df4:	00058a93          	mv	s5,a1
    1df8:	000b0613          	mv	a2,s6
    1dfc:	000b8693          	mv	a3,s7
    1e00:	00040513          	mv	a0,s0
    1e04:	00048593          	mv	a1,s1
    1e08:	389030ef          	jal	5990 <__muldf3>
    1e0c:	00050613          	mv	a2,a0
    1e10:	00058693          	mv	a3,a1
    1e14:	00040513          	mv	a0,s0
    1e18:	00048593          	mv	a1,s1
    1e1c:	375030ef          	jal	5990 <__muldf3>
    1e20:	000066b7          	lui	a3,0x6
    1e24:	7186a603          	lw	a2,1816(a3) # 6718 <MAP_WIDTH+0x94>
    1e28:	71c6a683          	lw	a3,1820(a3)
    1e2c:	00058993          	mv	s3,a1
    1e30:	00b945b3          	xor	a1,s2,a1
    1e34:	00a12623          	sw	a0,12(sp)
    1e38:	620030ef          	jal	5458 <__divdf3>
    1e3c:	000a0613          	mv	a2,s4
    1e40:	000a8693          	mv	a3,s5
    1e44:	304030ef          	jal	5148 <__adddf3>
    1e48:	00c12603          	lw	a2,12(sp)
    1e4c:	00050b93          	mv	s7,a0
    1e50:	00058c13          	mv	s8,a1
    1e54:	00098693          	mv	a3,s3
    1e58:	00040513          	mv	a0,s0
    1e5c:	00048593          	mv	a1,s1
    1e60:	331030ef          	jal	5990 <__muldf3>
    1e64:	00050613          	mv	a2,a0
    1e68:	00058693          	mv	a3,a1
    1e6c:	00040513          	mv	a0,s0
    1e70:	00048593          	mv	a1,s1
    1e74:	31d030ef          	jal	5990 <__muldf3>
    1e78:	000067b7          	lui	a5,0x6
    1e7c:	7207a603          	lw	a2,1824(a5) # 6720 <MAP_WIDTH+0x9c>
    1e80:	7247a683          	lw	a3,1828(a5)
    1e84:	00058b13          	mv	s6,a1
    1e88:	00050a93          	mv	s5,a0
    1e8c:	5cc030ef          	jal	5458 <__divdf3>
    1e90:	000b8613          	mv	a2,s7
    1e94:	000c0693          	mv	a3,s8
    1e98:	2b0030ef          	jal	5148 <__adddf3>
    1e9c:	000b0693          	mv	a3,s6
    1ea0:	00050993          	mv	s3,a0
    1ea4:	00058a13          	mv	s4,a1
    1ea8:	000a8613          	mv	a2,s5
    1eac:	00040513          	mv	a0,s0
    1eb0:	00048593          	mv	a1,s1
    1eb4:	2dd030ef          	jal	5990 <__muldf3>
    1eb8:	00050613          	mv	a2,a0
    1ebc:	00058693          	mv	a3,a1
    1ec0:	00040513          	mv	a0,s0
    1ec4:	00048593          	mv	a1,s1
    1ec8:	2c9030ef          	jal	5990 <__muldf3>
    1ecc:	0125c7b3          	xor	a5,a1,s2
    1ed0:	00078593          	mv	a1,a5
    1ed4:	000067b7          	lui	a5,0x6
    1ed8:	7287a603          	lw	a2,1832(a5) # 6728 <MAP_WIDTH+0xa4>
    1edc:	72c7a683          	lw	a3,1836(a5)
    1ee0:	578030ef          	jal	5458 <__divdf3>
    1ee4:	00098613          	mv	a2,s3
    1ee8:	000a0693          	mv	a3,s4
    1eec:	25c030ef          	jal	5148 <__adddf3>
    1ef0:	00050793          	mv	a5,a0
    1ef4:	02012b03          	lw	s6,32(sp)
    1ef8:	01c12b83          	lw	s7,28(sp)
    1efc:	01812c03          	lw	s8,24(sp)
    1f00:	cd5ff06f          	j	1bd4 <get_angle+0x114>
    1f04:	00000613          	li	a2,0
    1f08:	00000693          	li	a3,0
    1f0c:	00040513          	mv	a0,s0
    1f10:	00048593          	mv	a1,s1
    1f14:	215030ef          	jal	5928 <__ltdf2>
    1f18:	5e054c63          	bltz	a0,2510 <get_angle+0xa50>
    1f1c:	00000613          	li	a2,0
    1f20:	00000693          	li	a3,0
    1f24:	00090513          	mv	a0,s2
    1f28:	00098593          	mv	a1,s3
    1f2c:	135030ef          	jal	5860 <__gtdf2>
    1f30:	2ea05663          	blez	a0,221c <get_angle+0x75c>
    1f34:	00090613          	mv	a2,s2
    1f38:	00098693          	mv	a3,s3
    1f3c:	00040513          	mv	a0,s0
    1f40:	00048593          	mv	a1,s1
    1f44:	514030ef          	jal	5458 <__divdf3>
    1f48:	000067b7          	lui	a5,0x6
    1f4c:	6a87a603          	lw	a2,1704(a5) # 66a8 <MAP_WIDTH+0x24>
    1f50:	6ac7a683          	lw	a3,1708(a5)
    1f54:	00050493          	mv	s1,a0
    1f58:	00058413          	mv	s0,a1
    1f5c:	165030ef          	jal	58c0 <__ledf2>
    1f60:	00a05863          	blez	a0,1f70 <get_angle+0x4b0>
    1f64:	00000793          	li	a5,0
    1f68:	00000593          	li	a1,0
    1f6c:	c69ff06f          	j	1bd4 <get_angle+0x114>
    1f70:	03612023          	sw	s6,32(sp)
    1f74:	01712e23          	sw	s7,28(sp)
    1f78:	00000613          	li	a2,0
    1f7c:	00000693          	li	a3,0
    1f80:	00048513          	mv	a0,s1
    1f84:	00040593          	mv	a1,s0
    1f88:	1c0030ef          	jal	5148 <__adddf3>
    1f8c:	00050a13          	mv	s4,a0
    1f90:	00058a93          	mv	s5,a1
    1f94:	00048613          	mv	a2,s1
    1f98:	00040693          	mv	a3,s0
    1f9c:	00048513          	mv	a0,s1
    1fa0:	00040593          	mv	a1,s0
    1fa4:	1ed030ef          	jal	5990 <__muldf3>
    1fa8:	00050613          	mv	a2,a0
    1fac:	00058693          	mv	a3,a1
    1fb0:	00048513          	mv	a0,s1
    1fb4:	00040593          	mv	a1,s0
    1fb8:	1d9030ef          	jal	5990 <__muldf3>
    1fbc:	800009b7          	lui	s3,0x80000
    1fc0:	00b9c733          	xor	a4,s3,a1
    1fc4:	00b12623          	sw	a1,12(sp)
    1fc8:	00070593          	mv	a1,a4
    1fcc:	00006737          	lui	a4,0x6
    1fd0:	6f872603          	lw	a2,1784(a4) # 66f8 <MAP_WIDTH+0x74>
    1fd4:	6fc72683          	lw	a3,1788(a4)
    1fd8:	00050913          	mv	s2,a0
    1fdc:	47c030ef          	jal	5458 <__divdf3>
    1fe0:	000a0613          	mv	a2,s4
    1fe4:	000a8693          	mv	a3,s5
    1fe8:	160030ef          	jal	5148 <__adddf3>
    1fec:	00c12683          	lw	a3,12(sp)
    1ff0:	00050a13          	mv	s4,a0
    1ff4:	00058a93          	mv	s5,a1
    1ff8:	00090613          	mv	a2,s2
    1ffc:	00048513          	mv	a0,s1
    2000:	00040593          	mv	a1,s0
    2004:	18d030ef          	jal	5990 <__muldf3>
    2008:	00050613          	mv	a2,a0
    200c:	00058693          	mv	a3,a1
    2010:	00048513          	mv	a0,s1
    2014:	00040593          	mv	a1,s0
    2018:	179030ef          	jal	5990 <__muldf3>
    201c:	000067b7          	lui	a5,0x6
    2020:	7007a603          	lw	a2,1792(a5) # 6700 <MAP_WIDTH+0x7c>
    2024:	7047a683          	lw	a3,1796(a5)
    2028:	00050b13          	mv	s6,a0
    202c:	00058b93          	mv	s7,a1
    2030:	428030ef          	jal	5458 <__divdf3>
    2034:	000a0613          	mv	a2,s4
    2038:	000a8693          	mv	a3,s5
    203c:	10c030ef          	jal	5148 <__adddf3>
    2040:	00050a13          	mv	s4,a0
    2044:	00058a93          	mv	s5,a1
    2048:	000b0613          	mv	a2,s6
    204c:	000b8693          	mv	a3,s7
    2050:	00048513          	mv	a0,s1
    2054:	00040593          	mv	a1,s0
    2058:	139030ef          	jal	5990 <__muldf3>
    205c:	00050613          	mv	a2,a0
    2060:	00058693          	mv	a3,a1
    2064:	00048513          	mv	a0,s1
    2068:	00040593          	mv	a1,s0
    206c:	125030ef          	jal	5990 <__muldf3>
    2070:	00b9c733          	xor	a4,s3,a1
    2074:	00b12623          	sw	a1,12(sp)
    2078:	00070593          	mv	a1,a4
    207c:	00006737          	lui	a4,0x6
    2080:	70872603          	lw	a2,1800(a4) # 6708 <MAP_WIDTH+0x84>
    2084:	70c72683          	lw	a3,1804(a4)
    2088:	00050913          	mv	s2,a0
    208c:	3cc030ef          	jal	5458 <__divdf3>
    2090:	000a0613          	mv	a2,s4
    2094:	000a8693          	mv	a3,s5
    2098:	0b0030ef          	jal	5148 <__adddf3>
    209c:	00c12683          	lw	a3,12(sp)
    20a0:	00050a13          	mv	s4,a0
    20a4:	00058a93          	mv	s5,a1
    20a8:	00090613          	mv	a2,s2
    20ac:	00048513          	mv	a0,s1
    20b0:	00040593          	mv	a1,s0
    20b4:	0dd030ef          	jal	5990 <__muldf3>
    20b8:	00050613          	mv	a2,a0
    20bc:	00058693          	mv	a3,a1
    20c0:	00048513          	mv	a0,s1
    20c4:	00040593          	mv	a1,s0
    20c8:	0c9030ef          	jal	5990 <__muldf3>
    20cc:	000067b7          	lui	a5,0x6
    20d0:	7107a603          	lw	a2,1808(a5) # 6710 <MAP_WIDTH+0x8c>
    20d4:	7147a683          	lw	a3,1812(a5)
    20d8:	00050b13          	mv	s6,a0
    20dc:	00058b93          	mv	s7,a1
    20e0:	378030ef          	jal	5458 <__divdf3>
    20e4:	000a0613          	mv	a2,s4
    20e8:	000a8693          	mv	a3,s5
    20ec:	05c030ef          	jal	5148 <__adddf3>
    20f0:	00050a13          	mv	s4,a0
    20f4:	00058a93          	mv	s5,a1
    20f8:	000b0613          	mv	a2,s6
    20fc:	000b8693          	mv	a3,s7
    2100:	00048513          	mv	a0,s1
    2104:	00040593          	mv	a1,s0
    2108:	089030ef          	jal	5990 <__muldf3>
    210c:	00050613          	mv	a2,a0
    2110:	00058693          	mv	a3,a1
    2114:	00048513          	mv	a0,s1
    2118:	00040593          	mv	a1,s0
    211c:	075030ef          	jal	5990 <__muldf3>
    2120:	00b9c733          	xor	a4,s3,a1
    2124:	00b12623          	sw	a1,12(sp)
    2128:	00070593          	mv	a1,a4
    212c:	00006737          	lui	a4,0x6
    2130:	71872603          	lw	a2,1816(a4) # 6718 <MAP_WIDTH+0x94>
    2134:	71c72683          	lw	a3,1820(a4)
    2138:	00050913          	mv	s2,a0
    213c:	31c030ef          	jal	5458 <__divdf3>
    2140:	000a0613          	mv	a2,s4
    2144:	000a8693          	mv	a3,s5
    2148:	000030ef          	jal	5148 <__adddf3>
    214c:	00c12683          	lw	a3,12(sp)
    2150:	00050a13          	mv	s4,a0
    2154:	00058a93          	mv	s5,a1
    2158:	00090613          	mv	a2,s2
    215c:	00048513          	mv	a0,s1
    2160:	00040593          	mv	a1,s0
    2164:	02d030ef          	jal	5990 <__muldf3>
    2168:	00050613          	mv	a2,a0
    216c:	00058693          	mv	a3,a1
    2170:	00048513          	mv	a0,s1
    2174:	00040593          	mv	a1,s0
    2178:	019030ef          	jal	5990 <__muldf3>
    217c:	000067b7          	lui	a5,0x6
    2180:	7207a603          	lw	a2,1824(a5) # 6720 <MAP_WIDTH+0x9c>
    2184:	7247a683          	lw	a3,1828(a5)
    2188:	00050b13          	mv	s6,a0
    218c:	00058b93          	mv	s7,a1
    2190:	2c8030ef          	jal	5458 <__divdf3>
    2194:	000a0613          	mv	a2,s4
    2198:	000a8693          	mv	a3,s5
    219c:	7ad020ef          	jal	5148 <__adddf3>
    21a0:	000b0613          	mv	a2,s6
    21a4:	000b8693          	mv	a3,s7
    21a8:	00050a13          	mv	s4,a0
    21ac:	00058a93          	mv	s5,a1
    21b0:	00048513          	mv	a0,s1
    21b4:	00040593          	mv	a1,s0
    21b8:	7d8030ef          	jal	5990 <__muldf3>
    21bc:	00050613          	mv	a2,a0
    21c0:	00058693          	mv	a3,a1
    21c4:	00048513          	mv	a0,s1
    21c8:	00040593          	mv	a1,s0
    21cc:	7c4030ef          	jal	5990 <__muldf3>
    21d0:	0135c7b3          	xor	a5,a1,s3
    21d4:	00078593          	mv	a1,a5
    21d8:	000067b7          	lui	a5,0x6
    21dc:	7287a603          	lw	a2,1832(a5) # 6728 <MAP_WIDTH+0xa4>
    21e0:	72c7a683          	lw	a3,1836(a5)
    21e4:	274030ef          	jal	5458 <__divdf3>
    21e8:	000a0613          	mv	a2,s4
    21ec:	000a8693          	mv	a3,s5
    21f0:	759020ef          	jal	5148 <__adddf3>
    21f4:	000067b7          	lui	a5,0x6
    21f8:	00050613          	mv	a2,a0
    21fc:	00058693          	mv	a3,a1
    2200:	6b07a503          	lw	a0,1712(a5) # 66b0 <MAP_WIDTH+0x2c>
    2204:	6b47a583          	lw	a1,1716(a5)
    2208:	739020ef          	jal	5140 <__subdf3>
    220c:	00050793          	mv	a5,a0
    2210:	02012b03          	lw	s6,32(sp)
    2214:	01c12b83          	lw	s7,28(sp)
    2218:	9bdff06f          	j	1bd4 <get_angle+0x114>
    221c:	00000613          	li	a2,0
    2220:	00000693          	li	a3,0
    2224:	00090513          	mv	a0,s2
    2228:	00098593          	mv	a1,s3
    222c:	6fc030ef          	jal	5928 <__ltdf2>
    2230:	d2055ae3          	bgez	a0,1f64 <get_angle+0x4a4>
    2234:	00090613          	mv	a2,s2
    2238:	00098693          	mv	a3,s3
    223c:	00040513          	mv	a0,s0
    2240:	00048593          	mv	a1,s1
    2244:	214030ef          	jal	5458 <__divdf3>
    2248:	000067b7          	lui	a5,0x6
    224c:	6a87a603          	lw	a2,1704(a5) # 66a8 <MAP_WIDTH+0x24>
    2250:	6ac7a683          	lw	a3,1708(a5)
    2254:	00050493          	mv	s1,a0
    2258:	00058413          	mv	s0,a1
    225c:	664030ef          	jal	58c0 <__ledf2>
    2260:	d0a042e3          	bgtz	a0,1f64 <get_angle+0x4a4>
    2264:	03612023          	sw	s6,32(sp)
    2268:	01712e23          	sw	s7,28(sp)
    226c:	00000613          	li	a2,0
    2270:	00000693          	li	a3,0
    2274:	00048513          	mv	a0,s1
    2278:	00040593          	mv	a1,s0
    227c:	6cd020ef          	jal	5148 <__adddf3>
    2280:	00050a13          	mv	s4,a0
    2284:	00058a93          	mv	s5,a1
    2288:	00048613          	mv	a2,s1
    228c:	00040693          	mv	a3,s0
    2290:	00048513          	mv	a0,s1
    2294:	00040593          	mv	a1,s0
    2298:	6f8030ef          	jal	5990 <__muldf3>
    229c:	00050613          	mv	a2,a0
    22a0:	00058693          	mv	a3,a1
    22a4:	00048513          	mv	a0,s1
    22a8:	00040593          	mv	a1,s0
    22ac:	6e4030ef          	jal	5990 <__muldf3>
    22b0:	800009b7          	lui	s3,0x80000
    22b4:	00b9c733          	xor	a4,s3,a1
    22b8:	00b12623          	sw	a1,12(sp)
    22bc:	00070593          	mv	a1,a4
    22c0:	00006737          	lui	a4,0x6
    22c4:	6f872603          	lw	a2,1784(a4) # 66f8 <MAP_WIDTH+0x74>
    22c8:	6fc72683          	lw	a3,1788(a4)
    22cc:	00050913          	mv	s2,a0
    22d0:	188030ef          	jal	5458 <__divdf3>
    22d4:	000a0613          	mv	a2,s4
    22d8:	000a8693          	mv	a3,s5
    22dc:	66d020ef          	jal	5148 <__adddf3>
    22e0:	00c12683          	lw	a3,12(sp)
    22e4:	00050a13          	mv	s4,a0
    22e8:	00058a93          	mv	s5,a1
    22ec:	00090613          	mv	a2,s2
    22f0:	00048513          	mv	a0,s1
    22f4:	00040593          	mv	a1,s0
    22f8:	698030ef          	jal	5990 <__muldf3>
    22fc:	00050613          	mv	a2,a0
    2300:	00058693          	mv	a3,a1
    2304:	00048513          	mv	a0,s1
    2308:	00040593          	mv	a1,s0
    230c:	684030ef          	jal	5990 <__muldf3>
    2310:	000067b7          	lui	a5,0x6
    2314:	7007a603          	lw	a2,1792(a5) # 6700 <MAP_WIDTH+0x7c>
    2318:	7047a683          	lw	a3,1796(a5)
    231c:	00050b13          	mv	s6,a0
    2320:	00058b93          	mv	s7,a1
    2324:	134030ef          	jal	5458 <__divdf3>
    2328:	000a0613          	mv	a2,s4
    232c:	000a8693          	mv	a3,s5
    2330:	619020ef          	jal	5148 <__adddf3>
    2334:	00050a13          	mv	s4,a0
    2338:	00058a93          	mv	s5,a1
    233c:	000b0613          	mv	a2,s6
    2340:	000b8693          	mv	a3,s7
    2344:	00048513          	mv	a0,s1
    2348:	00040593          	mv	a1,s0
    234c:	644030ef          	jal	5990 <__muldf3>
    2350:	00050613          	mv	a2,a0
    2354:	00058693          	mv	a3,a1
    2358:	00048513          	mv	a0,s1
    235c:	00040593          	mv	a1,s0
    2360:	630030ef          	jal	5990 <__muldf3>
    2364:	00b9c733          	xor	a4,s3,a1
    2368:	00b12623          	sw	a1,12(sp)
    236c:	00070593          	mv	a1,a4
    2370:	00006737          	lui	a4,0x6
    2374:	70872603          	lw	a2,1800(a4) # 6708 <MAP_WIDTH+0x84>
    2378:	70c72683          	lw	a3,1804(a4)
    237c:	00050913          	mv	s2,a0
    2380:	0d8030ef          	jal	5458 <__divdf3>
    2384:	000a0613          	mv	a2,s4
    2388:	000a8693          	mv	a3,s5
    238c:	5bd020ef          	jal	5148 <__adddf3>
    2390:	00c12683          	lw	a3,12(sp)
    2394:	00050a13          	mv	s4,a0
    2398:	00058a93          	mv	s5,a1
    239c:	00090613          	mv	a2,s2
    23a0:	00048513          	mv	a0,s1
    23a4:	00040593          	mv	a1,s0
    23a8:	5e8030ef          	jal	5990 <__muldf3>
    23ac:	00050613          	mv	a2,a0
    23b0:	00058693          	mv	a3,a1
    23b4:	00048513          	mv	a0,s1
    23b8:	00040593          	mv	a1,s0
    23bc:	5d4030ef          	jal	5990 <__muldf3>
    23c0:	000067b7          	lui	a5,0x6
    23c4:	7107a603          	lw	a2,1808(a5) # 6710 <MAP_WIDTH+0x8c>
    23c8:	7147a683          	lw	a3,1812(a5)
    23cc:	00050b13          	mv	s6,a0
    23d0:	00058b93          	mv	s7,a1
    23d4:	084030ef          	jal	5458 <__divdf3>
    23d8:	000a0613          	mv	a2,s4
    23dc:	000a8693          	mv	a3,s5
    23e0:	569020ef          	jal	5148 <__adddf3>
    23e4:	00050a13          	mv	s4,a0
    23e8:	00058a93          	mv	s5,a1
    23ec:	000b0613          	mv	a2,s6
    23f0:	000b8693          	mv	a3,s7
    23f4:	00048513          	mv	a0,s1
    23f8:	00040593          	mv	a1,s0
    23fc:	594030ef          	jal	5990 <__muldf3>
    2400:	00050613          	mv	a2,a0
    2404:	00058693          	mv	a3,a1
    2408:	00048513          	mv	a0,s1
    240c:	00040593          	mv	a1,s0
    2410:	580030ef          	jal	5990 <__muldf3>
    2414:	00b9c733          	xor	a4,s3,a1
    2418:	00b12623          	sw	a1,12(sp)
    241c:	00070593          	mv	a1,a4
    2420:	00006737          	lui	a4,0x6
    2424:	71872603          	lw	a2,1816(a4) # 6718 <MAP_WIDTH+0x94>
    2428:	71c72683          	lw	a3,1820(a4)
    242c:	00050913          	mv	s2,a0
    2430:	028030ef          	jal	5458 <__divdf3>
    2434:	000a0613          	mv	a2,s4
    2438:	000a8693          	mv	a3,s5
    243c:	50d020ef          	jal	5148 <__adddf3>
    2440:	00c12683          	lw	a3,12(sp)
    2444:	00050a13          	mv	s4,a0
    2448:	00058a93          	mv	s5,a1
    244c:	00090613          	mv	a2,s2
    2450:	00048513          	mv	a0,s1
    2454:	00040593          	mv	a1,s0
    2458:	538030ef          	jal	5990 <__muldf3>
    245c:	00050613          	mv	a2,a0
    2460:	00058693          	mv	a3,a1
    2464:	00048513          	mv	a0,s1
    2468:	00040593          	mv	a1,s0
    246c:	524030ef          	jal	5990 <__muldf3>
    2470:	000067b7          	lui	a5,0x6
    2474:	7207a603          	lw	a2,1824(a5) # 6720 <MAP_WIDTH+0x9c>
    2478:	7247a683          	lw	a3,1828(a5)
    247c:	00050b13          	mv	s6,a0
    2480:	00058b93          	mv	s7,a1
    2484:	7d5020ef          	jal	5458 <__divdf3>
    2488:	000a0613          	mv	a2,s4
    248c:	000a8693          	mv	a3,s5
    2490:	4b9020ef          	jal	5148 <__adddf3>
    2494:	000b0613          	mv	a2,s6
    2498:	000b8693          	mv	a3,s7
    249c:	00050a13          	mv	s4,a0
    24a0:	00058a93          	mv	s5,a1
    24a4:	00048513          	mv	a0,s1
    24a8:	00040593          	mv	a1,s0
    24ac:	4e4030ef          	jal	5990 <__muldf3>
    24b0:	00050613          	mv	a2,a0
    24b4:	00058693          	mv	a3,a1
    24b8:	00048513          	mv	a0,s1
    24bc:	00040593          	mv	a1,s0
    24c0:	4d0030ef          	jal	5990 <__muldf3>
    24c4:	0135c7b3          	xor	a5,a1,s3
    24c8:	00078593          	mv	a1,a5
    24cc:	000067b7          	lui	a5,0x6
    24d0:	7287a603          	lw	a2,1832(a5) # 6728 <MAP_WIDTH+0xa4>
    24d4:	72c7a683          	lw	a3,1836(a5)
    24d8:	781020ef          	jal	5458 <__divdf3>
    24dc:	000a0613          	mv	a2,s4
    24e0:	000a8693          	mv	a3,s5
    24e4:	465020ef          	jal	5148 <__adddf3>
    24e8:	0135c7b3          	xor	a5,a1,s3
    24ec:	00078593          	mv	a1,a5
    24f0:	000067b7          	lui	a5,0x6
    24f4:	6b07a603          	lw	a2,1712(a5) # 66b0 <MAP_WIDTH+0x2c>
    24f8:	6b47a683          	lw	a3,1716(a5)
    24fc:	445020ef          	jal	5140 <__subdf3>
    2500:	00050793          	mv	a5,a0
    2504:	02012b03          	lw	s6,32(sp)
    2508:	01c12b83          	lw	s7,28(sp)
    250c:	ec8ff06f          	j	1bd4 <get_angle+0x114>
    2510:	00040613          	mv	a2,s0
    2514:	00048693          	mv	a3,s1
    2518:	00090513          	mv	a0,s2
    251c:	00098593          	mv	a1,s3
    2520:	03612023          	sw	s6,32(sp)
    2524:	01712e23          	sw	s7,28(sp)
    2528:	731020ef          	jal	5458 <__divdf3>
    252c:	000067b7          	lui	a5,0x6
    2530:	6ac7a803          	lw	a6,1708(a5) # 66ac <MAP_WIDTH+0x28>
    2534:	6a87a783          	lw	a5,1704(a5)
    2538:	00050413          	mv	s0,a0
    253c:	00080693          	mv	a3,a6
    2540:	00078613          	mv	a2,a5
    2544:	00058493          	mv	s1,a1
    2548:	00078b13          	mv	s6,a5
    254c:	00080b93          	mv	s7,a6
    2550:	370030ef          	jal	58c0 <__ledf2>
    2554:	04a05663          	blez	a0,25a0 <get_angle+0xae0>
    2558:	00000613          	li	a2,0
    255c:	00000693          	li	a3,0
    2560:	00090513          	mv	a0,s2
    2564:	00098593          	mv	a1,s3
    2568:	3c0030ef          	jal	5928 <__ltdf2>
    256c:	e4055c63          	bgez	a0,1bc4 <get_angle+0x104>
    2570:	00090613          	mv	a2,s2
    2574:	00098693          	mv	a3,s3
    2578:	000a0513          	mv	a0,s4
    257c:	000a8593          	mv	a1,s5
    2580:	6d9020ef          	jal	5458 <__divdf3>
    2584:	000b0613          	mv	a2,s6
    2588:	000b8693          	mv	a3,s7
    258c:	00050493          	mv	s1,a0
    2590:	00058413          	mv	s0,a1
    2594:	32c030ef          	jal	58c0 <__ledf2>
    2598:	e2a04663          	bgtz	a0,1bc4 <get_angle+0x104>
    259c:	cd1ff06f          	j	226c <get_angle+0x7ac>
    25a0:	000067b7          	lui	a5,0x6
    25a4:	7347a803          	lw	a6,1844(a5) # 6734 <MAP_WIDTH+0xb0>
    25a8:	7307a783          	lw	a5,1840(a5)
    25ac:	00040513          	mv	a0,s0
    25b0:	00080693          	mv	a3,a6
    25b4:	00078613          	mv	a2,a5
    25b8:	00048593          	mv	a1,s1
    25bc:	00078b13          	mv	s6,a5
    25c0:	00080b93          	mv	s7,a6
    25c4:	228030ef          	jal	57ec <__gedf2>
    25c8:	00000613          	li	a2,0
    25cc:	00000693          	li	a3,0
    25d0:	04055263          	bgez	a0,2614 <get_angle+0xb54>
    25d4:	00090513          	mv	a0,s2
    25d8:	00098593          	mv	a1,s3
    25dc:	284030ef          	jal	5860 <__gtdf2>
    25e0:	dea05263          	blez	a0,1bc4 <get_angle+0x104>
    25e4:	00090613          	mv	a2,s2
    25e8:	00098693          	mv	a3,s3
    25ec:	000a0513          	mv	a0,s4
    25f0:	000a8593          	mv	a1,s5
    25f4:	665020ef          	jal	5458 <__divdf3>
    25f8:	000b0613          	mv	a2,s6
    25fc:	000b8693          	mv	a3,s7
    2600:	00050493          	mv	s1,a0
    2604:	00058413          	mv	s0,a1
    2608:	1e4030ef          	jal	57ec <__gedf2>
    260c:	da054c63          	bltz	a0,1bc4 <get_angle+0x104>
    2610:	969ff06f          	j	1f78 <get_angle+0x4b8>
    2614:	00040513          	mv	a0,s0
    2618:	00048593          	mv	a1,s1
    261c:	32d020ef          	jal	5148 <__adddf3>
    2620:	00050a13          	mv	s4,a0
    2624:	00058a93          	mv	s5,a1
    2628:	00040613          	mv	a2,s0
    262c:	00048693          	mv	a3,s1
    2630:	00040513          	mv	a0,s0
    2634:	00048593          	mv	a1,s1
    2638:	358030ef          	jal	5990 <__muldf3>
    263c:	00050613          	mv	a2,a0
    2640:	00058693          	mv	a3,a1
    2644:	00040513          	mv	a0,s0
    2648:	00048593          	mv	a1,s1
    264c:	344030ef          	jal	5990 <__muldf3>
    2650:	800009b7          	lui	s3,0x80000
    2654:	00b9c733          	xor	a4,s3,a1
    2658:	00b12623          	sw	a1,12(sp)
    265c:	00070593          	mv	a1,a4
    2660:	00006737          	lui	a4,0x6
    2664:	6f872603          	lw	a2,1784(a4) # 66f8 <MAP_WIDTH+0x74>
    2668:	6fc72683          	lw	a3,1788(a4)
    266c:	00050913          	mv	s2,a0
    2670:	5e9020ef          	jal	5458 <__divdf3>
    2674:	000a0613          	mv	a2,s4
    2678:	000a8693          	mv	a3,s5
    267c:	2cd020ef          	jal	5148 <__adddf3>
    2680:	00c12683          	lw	a3,12(sp)
    2684:	00050a13          	mv	s4,a0
    2688:	00058a93          	mv	s5,a1
    268c:	00090613          	mv	a2,s2
    2690:	00040513          	mv	a0,s0
    2694:	00048593          	mv	a1,s1
    2698:	2f8030ef          	jal	5990 <__muldf3>
    269c:	00050613          	mv	a2,a0
    26a0:	00058693          	mv	a3,a1
    26a4:	00040513          	mv	a0,s0
    26a8:	00048593          	mv	a1,s1
    26ac:	2e4030ef          	jal	5990 <__muldf3>
    26b0:	000067b7          	lui	a5,0x6
    26b4:	7007a603          	lw	a2,1792(a5) # 6700 <MAP_WIDTH+0x7c>
    26b8:	7047a683          	lw	a3,1796(a5)
    26bc:	00050b13          	mv	s6,a0
    26c0:	00058b93          	mv	s7,a1
    26c4:	595020ef          	jal	5458 <__divdf3>
    26c8:	000a0613          	mv	a2,s4
    26cc:	000a8693          	mv	a3,s5
    26d0:	279020ef          	jal	5148 <__adddf3>
    26d4:	00050a13          	mv	s4,a0
    26d8:	00058a93          	mv	s5,a1
    26dc:	000b0613          	mv	a2,s6
    26e0:	000b8693          	mv	a3,s7
    26e4:	00040513          	mv	a0,s0
    26e8:	00048593          	mv	a1,s1
    26ec:	2a4030ef          	jal	5990 <__muldf3>
    26f0:	00050613          	mv	a2,a0
    26f4:	00058693          	mv	a3,a1
    26f8:	00040513          	mv	a0,s0
    26fc:	00048593          	mv	a1,s1
    2700:	290030ef          	jal	5990 <__muldf3>
    2704:	00b9c733          	xor	a4,s3,a1
    2708:	00b12623          	sw	a1,12(sp)
    270c:	00070593          	mv	a1,a4
    2710:	00006737          	lui	a4,0x6
    2714:	70872603          	lw	a2,1800(a4) # 6708 <MAP_WIDTH+0x84>
    2718:	70c72683          	lw	a3,1804(a4)
    271c:	00050913          	mv	s2,a0
    2720:	539020ef          	jal	5458 <__divdf3>
    2724:	000a0613          	mv	a2,s4
    2728:	000a8693          	mv	a3,s5
    272c:	21d020ef          	jal	5148 <__adddf3>
    2730:	00c12683          	lw	a3,12(sp)
    2734:	00050a13          	mv	s4,a0
    2738:	00058a93          	mv	s5,a1
    273c:	00090613          	mv	a2,s2
    2740:	00040513          	mv	a0,s0
    2744:	00048593          	mv	a1,s1
    2748:	248030ef          	jal	5990 <__muldf3>
    274c:	00050613          	mv	a2,a0
    2750:	00058693          	mv	a3,a1
    2754:	00040513          	mv	a0,s0
    2758:	00048593          	mv	a1,s1
    275c:	234030ef          	jal	5990 <__muldf3>
    2760:	000067b7          	lui	a5,0x6
    2764:	7107a603          	lw	a2,1808(a5) # 6710 <MAP_WIDTH+0x8c>
    2768:	7147a683          	lw	a3,1812(a5)
    276c:	00050b13          	mv	s6,a0
    2770:	00058b93          	mv	s7,a1
    2774:	4e5020ef          	jal	5458 <__divdf3>
    2778:	000a0613          	mv	a2,s4
    277c:	000a8693          	mv	a3,s5
    2780:	1c9020ef          	jal	5148 <__adddf3>
    2784:	00050a13          	mv	s4,a0
    2788:	00058a93          	mv	s5,a1
    278c:	000b0613          	mv	a2,s6
    2790:	000b8693          	mv	a3,s7
    2794:	00040513          	mv	a0,s0
    2798:	00048593          	mv	a1,s1
    279c:	1f4030ef          	jal	5990 <__muldf3>
    27a0:	00050613          	mv	a2,a0
    27a4:	00058693          	mv	a3,a1
    27a8:	00040513          	mv	a0,s0
    27ac:	00048593          	mv	a1,s1
    27b0:	1e0030ef          	jal	5990 <__muldf3>
    27b4:	00b9c733          	xor	a4,s3,a1
    27b8:	00b12623          	sw	a1,12(sp)
    27bc:	00070593          	mv	a1,a4
    27c0:	00006737          	lui	a4,0x6
    27c4:	71872603          	lw	a2,1816(a4) # 6718 <MAP_WIDTH+0x94>
    27c8:	71c72683          	lw	a3,1820(a4)
    27cc:	00050913          	mv	s2,a0
    27d0:	489020ef          	jal	5458 <__divdf3>
    27d4:	000a0613          	mv	a2,s4
    27d8:	000a8693          	mv	a3,s5
    27dc:	16d020ef          	jal	5148 <__adddf3>
    27e0:	00c12683          	lw	a3,12(sp)
    27e4:	00050a13          	mv	s4,a0
    27e8:	00058a93          	mv	s5,a1
    27ec:	00090613          	mv	a2,s2
    27f0:	00040513          	mv	a0,s0
    27f4:	00048593          	mv	a1,s1
    27f8:	198030ef          	jal	5990 <__muldf3>
    27fc:	00050613          	mv	a2,a0
    2800:	00058693          	mv	a3,a1
    2804:	00040513          	mv	a0,s0
    2808:	00048593          	mv	a1,s1
    280c:	184030ef          	jal	5990 <__muldf3>
    2810:	000067b7          	lui	a5,0x6
    2814:	7207a603          	lw	a2,1824(a5) # 6720 <MAP_WIDTH+0x9c>
    2818:	7247a683          	lw	a3,1828(a5)
    281c:	00050b13          	mv	s6,a0
    2820:	00058b93          	mv	s7,a1
    2824:	435020ef          	jal	5458 <__divdf3>
    2828:	000a0613          	mv	a2,s4
    282c:	000a8693          	mv	a3,s5
    2830:	119020ef          	jal	5148 <__adddf3>
    2834:	000b0613          	mv	a2,s6
    2838:	000b8693          	mv	a3,s7
    283c:	00050a13          	mv	s4,a0
    2840:	00058a93          	mv	s5,a1
    2844:	00040513          	mv	a0,s0
    2848:	00048593          	mv	a1,s1
    284c:	144030ef          	jal	5990 <__muldf3>
    2850:	00050613          	mv	a2,a0
    2854:	00058693          	mv	a3,a1
    2858:	00040513          	mv	a0,s0
    285c:	00048593          	mv	a1,s1
    2860:	130030ef          	jal	5990 <__muldf3>
    2864:	0135c7b3          	xor	a5,a1,s3
    2868:	00078593          	mv	a1,a5
    286c:	000067b7          	lui	a5,0x6
    2870:	7287a603          	lw	a2,1832(a5) # 6728 <MAP_WIDTH+0xa4>
    2874:	72c7a683          	lw	a3,1836(a5)
    2878:	3e1020ef          	jal	5458 <__divdf3>
    287c:	000a0613          	mv	a2,s4
    2880:	000a8693          	mv	a3,s5
    2884:	0c5020ef          	jal	5148 <__adddf3>
    2888:	000067b7          	lui	a5,0x6
    288c:	6c07a603          	lw	a2,1728(a5) # 66c0 <MAP_WIDTH+0x3c>
    2890:	6c47a683          	lw	a3,1732(a5)
    2894:	0b5020ef          	jal	5148 <__adddf3>
    2898:	00050793          	mv	a5,a0
    289c:	02012b03          	lw	s6,32(sp)
    28a0:	01c12b83          	lw	s7,28(sp)
    28a4:	b30ff06f          	j	1bd4 <get_angle+0x114>
    28a8:	01812c03          	lw	s8,24(sp)
    28ac:	9c1ff06f          	j	226c <get_angle+0x7ac>

000028b0 <sqrt>:
    28b0:	fd010113          	addi	sp,sp,-48
    28b4:	02812423          	sw	s0,40(sp)
    28b8:	00006437          	lui	s0,0x6
    28bc:	6e042603          	lw	a2,1760(s0) # 66e0 <MAP_WIDTH+0x5c>
    28c0:	6e442683          	lw	a3,1764(s0)
    28c4:	03212023          	sw	s2,32(sp)
    28c8:	01312e23          	sw	s3,28(sp)
    28cc:	01412c23          	sw	s4,24(sp)
    28d0:	01512a23          	sw	s5,20(sp)
    28d4:	01612823          	sw	s6,16(sp)
    28d8:	01712623          	sw	s7,12(sp)
    28dc:	01812423          	sw	s8,8(sp)
    28e0:	01912223          	sw	s9,4(sp)
    28e4:	02112623          	sw	ra,44(sp)
    28e8:	02912223          	sw	s1,36(sp)
    28ec:	00050b13          	mv	s6,a0
    28f0:	00058b93          	mv	s7,a1
    28f4:	09c030ef          	jal	5990 <__muldf3>
    28f8:	000067b7          	lui	a5,0x6
    28fc:	6e042a03          	lw	s4,1760(s0)
    2900:	6e442a83          	lw	s5,1764(s0)
    2904:	7387a903          	lw	s2,1848(a5) # 6738 <MAP_WIDTH+0xb4>
    2908:	73c7a983          	lw	s3,1852(a5)
    290c:	00050c93          	mv	s9,a0
    2910:	00058c13          	mv	s8,a1
    2914:	000c8613          	mv	a2,s9
    2918:	000c0693          	mv	a3,s8
    291c:	000b0513          	mv	a0,s6
    2920:	000b8593          	mv	a1,s7
    2924:	335020ef          	jal	5458 <__divdf3>
    2928:	000c8613          	mv	a2,s9
    292c:	000c0693          	mv	a3,s8
    2930:	019020ef          	jal	5148 <__adddf3>
    2934:	000a0613          	mv	a2,s4
    2938:	000a8693          	mv	a3,s5
    293c:	054030ef          	jal	5990 <__muldf3>
    2940:	00050613          	mv	a2,a0
    2944:	00058693          	mv	a3,a1
    2948:	000c8513          	mv	a0,s9
    294c:	000c0593          	mv	a1,s8
    2950:	7f0020ef          	jal	5140 <__subdf3>
    2954:	00050613          	mv	a2,a0
    2958:	00058693          	mv	a3,a1
    295c:	00050413          	mv	s0,a0
    2960:	00058493          	mv	s1,a1
    2964:	000c8513          	mv	a0,s9
    2968:	000c0593          	mv	a1,s8
    296c:	7d4020ef          	jal	5140 <__subdf3>
    2970:	00050c93          	mv	s9,a0
    2974:	00058c13          	mv	s8,a1
    2978:	00090613          	mv	a2,s2
    297c:	00098693          	mv	a3,s3
    2980:	00040513          	mv	a0,s0
    2984:	00048593          	mv	a1,s1
    2988:	6d9020ef          	jal	5860 <__gtdf2>
    298c:	f8a044e3          	bgtz	a0,2914 <sqrt+0x64>
    2990:	02c12083          	lw	ra,44(sp)
    2994:	02812403          	lw	s0,40(sp)
    2998:	02412483          	lw	s1,36(sp)
    299c:	02012903          	lw	s2,32(sp)
    29a0:	01c12983          	lw	s3,28(sp)
    29a4:	01812a03          	lw	s4,24(sp)
    29a8:	01412a83          	lw	s5,20(sp)
    29ac:	01012b03          	lw	s6,16(sp)
    29b0:	00c12b83          	lw	s7,12(sp)
    29b4:	000c8513          	mv	a0,s9
    29b8:	000c0593          	mv	a1,s8
    29bc:	00412c83          	lw	s9,4(sp)
    29c0:	00812c03          	lw	s8,8(sp)
    29c4:	03010113          	addi	sp,sp,48
    29c8:	00008067          	ret

000029cc <abs>:
    29cc:	ff010113          	addi	sp,sp,-16
    29d0:	00000613          	li	a2,0
    29d4:	00000693          	li	a3,0
    29d8:	00812423          	sw	s0,8(sp)
    29dc:	00912223          	sw	s1,4(sp)
    29e0:	00112623          	sw	ra,12(sp)
    29e4:	00050493          	mv	s1,a0
    29e8:	00058413          	mv	s0,a1
    29ec:	601020ef          	jal	57ec <__gedf2>
    29f0:	00055663          	bgez	a0,29fc <abs+0x30>
    29f4:	800007b7          	lui	a5,0x80000
    29f8:	00f44433          	xor	s0,s0,a5
    29fc:	00c12083          	lw	ra,12(sp)
    2a00:	00040593          	mv	a1,s0
    2a04:	00812403          	lw	s0,8(sp)
    2a08:	00048513          	mv	a0,s1
    2a0c:	00412483          	lw	s1,4(sp)
    2a10:	01010113          	addi	sp,sp,16
    2a14:	00008067          	ret

00002a18 <hypotenuse>:
    2a18:	fd010113          	addi	sp,sp,-48
    2a1c:	03212023          	sw	s2,32(sp)
    2a20:	01312e23          	sw	s3,28(sp)
    2a24:	00060913          	mv	s2,a2
    2a28:	00068993          	mv	s3,a3
    2a2c:	00050613          	mv	a2,a0
    2a30:	00058693          	mv	a3,a1
    2a34:	02112623          	sw	ra,44(sp)
    2a38:	02812423          	sw	s0,40(sp)
    2a3c:	02912223          	sw	s1,36(sp)
    2a40:	01412c23          	sw	s4,24(sp)
    2a44:	01512a23          	sw	s5,20(sp)
    2a48:	01612823          	sw	s6,16(sp)
    2a4c:	01712623          	sw	s7,12(sp)
    2a50:	01812423          	sw	s8,8(sp)
    2a54:	01912223          	sw	s9,4(sp)
    2a58:	739020ef          	jal	5990 <__muldf3>
    2a5c:	00050413          	mv	s0,a0
    2a60:	00090613          	mv	a2,s2
    2a64:	00098693          	mv	a3,s3
    2a68:	00058493          	mv	s1,a1
    2a6c:	00090513          	mv	a0,s2
    2a70:	00098593          	mv	a1,s3
    2a74:	71d020ef          	jal	5990 <__muldf3>
    2a78:	00050613          	mv	a2,a0
    2a7c:	00058693          	mv	a3,a1
    2a80:	00040513          	mv	a0,s0
    2a84:	00048593          	mv	a1,s1
    2a88:	6c0020ef          	jal	5148 <__adddf3>
    2a8c:	00006437          	lui	s0,0x6
    2a90:	6e042603          	lw	a2,1760(s0) # 66e0 <MAP_WIDTH+0x5c>
    2a94:	6e442683          	lw	a3,1764(s0)
    2a98:	00050b13          	mv	s6,a0
    2a9c:	00058b93          	mv	s7,a1
    2aa0:	6f1020ef          	jal	5990 <__muldf3>
    2aa4:	000067b7          	lui	a5,0x6
    2aa8:	6e042a03          	lw	s4,1760(s0)
    2aac:	6e442a83          	lw	s5,1764(s0)
    2ab0:	7387a903          	lw	s2,1848(a5) # 6738 <MAP_WIDTH+0xb4>
    2ab4:	73c7a983          	lw	s3,1852(a5)
    2ab8:	00050c93          	mv	s9,a0
    2abc:	00058c13          	mv	s8,a1
    2ac0:	000c8613          	mv	a2,s9
    2ac4:	000c0693          	mv	a3,s8
    2ac8:	000b0513          	mv	a0,s6
    2acc:	000b8593          	mv	a1,s7
    2ad0:	189020ef          	jal	5458 <__divdf3>
    2ad4:	000c8613          	mv	a2,s9
    2ad8:	000c0693          	mv	a3,s8
    2adc:	66c020ef          	jal	5148 <__adddf3>
    2ae0:	000a0613          	mv	a2,s4
    2ae4:	000a8693          	mv	a3,s5
    2ae8:	6a9020ef          	jal	5990 <__muldf3>
    2aec:	00050613          	mv	a2,a0
    2af0:	00058693          	mv	a3,a1
    2af4:	000c8513          	mv	a0,s9
    2af8:	000c0593          	mv	a1,s8
    2afc:	644020ef          	jal	5140 <__subdf3>
    2b00:	00050613          	mv	a2,a0
    2b04:	00058693          	mv	a3,a1
    2b08:	00050413          	mv	s0,a0
    2b0c:	00058493          	mv	s1,a1
    2b10:	000c8513          	mv	a0,s9
    2b14:	000c0593          	mv	a1,s8
    2b18:	628020ef          	jal	5140 <__subdf3>
    2b1c:	00050c93          	mv	s9,a0
    2b20:	00058c13          	mv	s8,a1
    2b24:	00090613          	mv	a2,s2
    2b28:	00098693          	mv	a3,s3
    2b2c:	00040513          	mv	a0,s0
    2b30:	00048593          	mv	a1,s1
    2b34:	52d020ef          	jal	5860 <__gtdf2>
    2b38:	f8a044e3          	bgtz	a0,2ac0 <hypotenuse+0xa8>
    2b3c:	02c12083          	lw	ra,44(sp)
    2b40:	02812403          	lw	s0,40(sp)
    2b44:	02412483          	lw	s1,36(sp)
    2b48:	02012903          	lw	s2,32(sp)
    2b4c:	01c12983          	lw	s3,28(sp)
    2b50:	01812a03          	lw	s4,24(sp)
    2b54:	01412a83          	lw	s5,20(sp)
    2b58:	01012b03          	lw	s6,16(sp)
    2b5c:	00c12b83          	lw	s7,12(sp)
    2b60:	000c8513          	mv	a0,s9
    2b64:	000c0593          	mv	a1,s8
    2b68:	00412c83          	lw	s9,4(sp)
    2b6c:	00812c03          	lw	s8,8(sp)
    2b70:	03010113          	addi	sp,sp,48
    2b74:	00008067          	ret

00002b78 <translate_rotation>:
    2b78:	000067b7          	lui	a5,0x6
    2b7c:	6c07a603          	lw	a2,1728(a5) # 66c0 <MAP_WIDTH+0x3c>
    2b80:	6c47a683          	lw	a3,1732(a5)
    2b84:	ff010113          	addi	sp,sp,-16
    2b88:	00812423          	sw	s0,8(sp)
    2b8c:	00912223          	sw	s1,4(sp)
    2b90:	00112623          	sw	ra,12(sp)
    2b94:	00050493          	mv	s1,a0
    2b98:	00058413          	mv	s0,a1
    2b9c:	4c5020ef          	jal	5860 <__gtdf2>
    2ba0:	06a04c63          	bgtz	a0,2c18 <translate_rotation+0xa0>
    2ba4:	000067b7          	lui	a5,0x6
    2ba8:	7487a603          	lw	a2,1864(a5) # 6748 <MAP_WIDTH+0xc4>
    2bac:	74c7a683          	lw	a3,1868(a5)
    2bb0:	00048513          	mv	a0,s1
    2bb4:	00040593          	mv	a1,s0
    2bb8:	571020ef          	jal	5928 <__ltdf2>
    2bbc:	02054063          	bltz	a0,2bdc <translate_rotation+0x64>
    2bc0:	00c12083          	lw	ra,12(sp)
    2bc4:	00040593          	mv	a1,s0
    2bc8:	00812403          	lw	s0,8(sp)
    2bcc:	00048513          	mv	a0,s1
    2bd0:	00412483          	lw	s1,4(sp)
    2bd4:	01010113          	addi	sp,sp,16
    2bd8:	00008067          	ret
    2bdc:	000067b7          	lui	a5,0x6
    2be0:	7407a603          	lw	a2,1856(a5) # 6740 <MAP_WIDTH+0xbc>
    2be4:	7447a683          	lw	a3,1860(a5)
    2be8:	00048513          	mv	a0,s1
    2bec:	00040593          	mv	a1,s0
    2bf0:	558020ef          	jal	5148 <__adddf3>
    2bf4:	00058413          	mv	s0,a1
    2bf8:	00c12083          	lw	ra,12(sp)
    2bfc:	00040593          	mv	a1,s0
    2c00:	00812403          	lw	s0,8(sp)
    2c04:	00050493          	mv	s1,a0
    2c08:	00048513          	mv	a0,s1
    2c0c:	00412483          	lw	s1,4(sp)
    2c10:	01010113          	addi	sp,sp,16
    2c14:	00008067          	ret
    2c18:	000067b7          	lui	a5,0x6
    2c1c:	7407a603          	lw	a2,1856(a5) # 6740 <MAP_WIDTH+0xbc>
    2c20:	7447a683          	lw	a3,1860(a5)
    2c24:	00048513          	mv	a0,s1
    2c28:	00040593          	mv	a1,s0
    2c2c:	514020ef          	jal	5140 <__subdf3>
    2c30:	00058413          	mv	s0,a1
    2c34:	00c12083          	lw	ra,12(sp)
    2c38:	00040593          	mv	a1,s0
    2c3c:	00812403          	lw	s0,8(sp)
    2c40:	00050493          	mv	s1,a0
    2c44:	00048513          	mv	a0,s1
    2c48:	00412483          	lw	s1,4(sp)
    2c4c:	01010113          	addi	sp,sp,16
    2c50:	00008067          	ret

00002c54 <translate_small_rotation>:
    2c54:	fd010113          	addi	sp,sp,-48
    2c58:	000066b7          	lui	a3,0x6
    2c5c:	00006737          	lui	a4,0x6
    2c60:	000067b7          	lui	a5,0x6
    2c64:	03212023          	sw	s2,32(sp)
    2c68:	01312e23          	sw	s3,28(sp)
    2c6c:	01412c23          	sw	s4,24(sp)
    2c70:	01512a23          	sw	s5,20(sp)
    2c74:	01612823          	sw	s6,16(sp)
    2c78:	01712623          	sw	s7,12(sp)
    2c7c:	7506aa03          	lw	s4,1872(a3) # 6750 <MAP_WIDTH+0xcc>
    2c80:	7546aa83          	lw	s5,1876(a3)
    2c84:	75872b03          	lw	s6,1880(a4) # 6758 <MAP_WIDTH+0xd4>
    2c88:	75c72b83          	lw	s7,1884(a4)
    2c8c:	6b07a903          	lw	s2,1712(a5) # 66b0 <MAP_WIDTH+0x2c>
    2c90:	6b47a983          	lw	s3,1716(a5)
    2c94:	02812423          	sw	s0,40(sp)
    2c98:	02912223          	sw	s1,36(sp)
    2c9c:	02112623          	sw	ra,44(sp)
    2ca0:	00050493          	mv	s1,a0
    2ca4:	00058413          	mv	s0,a1
    2ca8:	00040593          	mv	a1,s0
    2cac:	000a0613          	mv	a2,s4
    2cb0:	000a8693          	mv	a3,s5
    2cb4:	00048513          	mv	a0,s1
    2cb8:	335020ef          	jal	57ec <__gedf2>
    2cbc:	00050813          	mv	a6,a0
    2cc0:	00040593          	mv	a1,s0
    2cc4:	00048513          	mv	a0,s1
    2cc8:	00090613          	mv	a2,s2
    2ccc:	00098693          	mv	a3,s3
    2cd0:	02085c63          	bgez	a6,2d08 <translate_small_rotation+0xb4>
    2cd4:	000b0613          	mv	a2,s6
    2cd8:	000b8693          	mv	a3,s7
    2cdc:	3e5020ef          	jal	58c0 <__ledf2>
    2ce0:	00050793          	mv	a5,a0
    2ce4:	00040593          	mv	a1,s0
    2ce8:	00048513          	mv	a0,s1
    2cec:	00090613          	mv	a2,s2
    2cf0:	00098693          	mv	a3,s3
    2cf4:	02f04263          	bgtz	a5,2d18 <translate_small_rotation+0xc4>
    2cf8:	450020ef          	jal	5148 <__adddf3>
    2cfc:	00050493          	mv	s1,a0
    2d00:	00058413          	mv	s0,a1
    2d04:	fa5ff06f          	j	2ca8 <translate_small_rotation+0x54>
    2d08:	438020ef          	jal	5140 <__subdf3>
    2d0c:	00050493          	mv	s1,a0
    2d10:	00058413          	mv	s0,a1
    2d14:	f95ff06f          	j	2ca8 <translate_small_rotation+0x54>
    2d18:	02c12083          	lw	ra,44(sp)
    2d1c:	02812403          	lw	s0,40(sp)
    2d20:	02412483          	lw	s1,36(sp)
    2d24:	02012903          	lw	s2,32(sp)
    2d28:	01c12983          	lw	s3,28(sp)
    2d2c:	01812a03          	lw	s4,24(sp)
    2d30:	01412a83          	lw	s5,20(sp)
    2d34:	01012b03          	lw	s6,16(sp)
    2d38:	00c12b83          	lw	s7,12(sp)
    2d3c:	03010113          	addi	sp,sp,48
    2d40:	00008067          	ret

00002d44 <move>:
    2d44:	fb010113          	addi	sp,sp,-80
    2d48:	04812423          	sw	s0,72(sp)
    2d4c:	40455413          	srai	s0,a0,0x4
    2d50:	04112623          	sw	ra,76(sp)
    2d54:	04912223          	sw	s1,68(sp)
    2d58:	05212023          	sw	s2,64(sp)
    2d5c:	03312e23          	sw	s3,60(sp)
    2d60:	03412c23          	sw	s4,56(sp)
    2d64:	03512a23          	sw	s5,52(sp)
    2d68:	03612823          	sw	s6,48(sp)
    2d6c:	03712623          	sw	s7,44(sp)
    2d70:	03812423          	sw	s8,40(sp)
    2d74:	03912223          	sw	s9,36(sp)
    2d78:	03a12023          	sw	s10,32(sp)
    2d7c:	01b12e23          	sw	s11,28(sp)
    2d80:	00847793          	andi	a5,s0,8
    2d84:	00447713          	andi	a4,s0,4
    2d88:	5c078863          	beqz	a5,3358 <move+0x614>
    2d8c:	420700e3          	beqz	a4,39ac <move+0xc68>
    2d90:	00000b93          	li	s7,0
    2d94:	00000c13          	li	s8,0
    2d98:	01712223          	sw	s7,4(sp)
    2d9c:	01812423          	sw	s8,8(sp)
    2da0:	01047793          	andi	a5,s0,16
    2da4:	00247713          	andi	a4,s0,2
    2da8:	2c078063          	beqz	a5,3068 <move+0x324>
    2dac:	10070ee3          	beqz	a4,36c8 <move+0x984>
    2db0:	02047793          	andi	a5,s0,32
    2db4:	00147413          	andi	s0,s0,1
    2db8:	28078663          	beqz	a5,3044 <move+0x300>
    2dbc:	080406e3          	beqz	s0,3648 <move+0x904>
    2dc0:	000067b7          	lui	a5,0x6
    2dc4:	2a87a603          	lw	a2,680(a5) # 62a8 <player_x>
    2dc8:	2ac7a683          	lw	a3,684(a5)
    2dcc:	00412503          	lw	a0,4(sp)
    2dd0:	00812583          	lw	a1,8(sp)
    2dd4:	00006db7          	lui	s11,0x6
    2dd8:	07800993          	li	s3,120
    2ddc:	36c020ef          	jal	5148 <__adddf3>
    2de0:	000067b7          	lui	a5,0x6
    2de4:	2a07a603          	lw	a2,672(a5) # 62a0 <player_y>
    2de8:	2a47a683          	lw	a3,676(a5)
    2dec:	00050913          	mv	s2,a0
    2df0:	00058493          	mv	s1,a1
    2df4:	000b8513          	mv	a0,s7
    2df8:	000c0593          	mv	a1,s8
    2dfc:	34c020ef          	jal	5148 <__adddf3>
    2e00:	ba0d8793          	addi	a5,s11,-1120 # 5ba0 <colors>
    2e04:	50078b13          	addi	s6,a5,1280
    2e08:	00f12623          	sw	a5,12(sp)
    2e0c:	00050a93          	mv	s5,a0
    2e10:	00058a13          	mv	s4,a1
    2e14:	000b0c93          	mv	s9,s6
    2e18:	00000d93          	li	s11,0
    2e1c:	000cad03          	lw	s10,0(s9)
    2e20:	004ca403          	lw	s0,4(s9)
    2e24:	fe7d0513          	addi	a0,s10,-25
    2e28:	008d66b3          	or	a3,s10,s0
    2e2c:	08068863          	beqz	a3,2ebc <move+0x178>
    2e30:	17d020ef          	jal	57ac <__floatsidf>
    2e34:	00058693          	mv	a3,a1
    2e38:	00050613          	mv	a2,a0
    2e3c:	00048593          	mv	a1,s1
    2e40:	00090513          	mv	a0,s2
    2e44:	1a9020ef          	jal	57ec <__gedf2>
    2e48:	00050693          	mv	a3,a0
    2e4c:	019d0513          	addi	a0,s10,25
    2e50:	0606c663          	bltz	a3,2ebc <move+0x178>
    2e54:	159020ef          	jal	57ac <__floatsidf>
    2e58:	00050613          	mv	a2,a0
    2e5c:	00058693          	mv	a3,a1
    2e60:	00090513          	mv	a0,s2
    2e64:	00048593          	mv	a1,s1
    2e68:	259020ef          	jal	58c0 <__ledf2>
    2e6c:	00050713          	mv	a4,a0
    2e70:	fe740513          	addi	a0,s0,-25
    2e74:	04e04463          	bgtz	a4,2ebc <move+0x178>
    2e78:	135020ef          	jal	57ac <__floatsidf>
    2e7c:	00050613          	mv	a2,a0
    2e80:	00058693          	mv	a3,a1
    2e84:	000a8513          	mv	a0,s5
    2e88:	000a0593          	mv	a1,s4
    2e8c:	161020ef          	jal	57ec <__gedf2>
    2e90:	00050713          	mv	a4,a0
    2e94:	01940513          	addi	a0,s0,25
    2e98:	02074263          	bltz	a4,2ebc <move+0x178>
    2e9c:	111020ef          	jal	57ac <__floatsidf>
    2ea0:	00050613          	mv	a2,a0
    2ea4:	00058693          	mv	a3,a1
    2ea8:	000a8513          	mv	a0,s5
    2eac:	000a0593          	mv	a1,s4
    2eb0:	211020ef          	jal	58c0 <__ledf2>
    2eb4:	00a04463          	bgtz	a0,2ebc <move+0x178>
    2eb8:	5dd0006f          	j	3c94 <move+0xf50>
    2ebc:	003d8d93          	addi	s11,s11,3
    2ec0:	00cc8c93          	addi	s9,s9,12
    2ec4:	f53d9ce3          	bne	s11,s3,2e1c <move+0xd8>
    2ec8:	00090513          	mv	a0,s2
    2ecc:	00048593          	mv	a1,s1
    2ed0:	00000613          	li	a2,0
    2ed4:	00000693          	li	a3,0
    2ed8:	115020ef          	jal	57ec <__gedf2>
    2edc:	12054663          	bltz	a0,3008 <move+0x2c4>
    2ee0:	000067b7          	lui	a5,0x6
    2ee4:	6a07ac03          	lw	s8,1696(a5) # 66a0 <MAP_WIDTH+0x1c>
    2ee8:	6a47ac83          	lw	s9,1700(a5)
    2eec:	00090513          	mv	a0,s2
    2ef0:	00048593          	mv	a1,s1
    2ef4:	000c0613          	mv	a2,s8
    2ef8:	000c8693          	mv	a3,s9
    2efc:	1c5020ef          	jal	58c0 <__ledf2>
    2f00:	10a04463          	bgtz	a0,3008 <move+0x2c4>
    2f04:	000a8513          	mv	a0,s5
    2f08:	000a0593          	mv	a1,s4
    2f0c:	00000613          	li	a2,0
    2f10:	00000693          	li	a3,0
    2f14:	0d9020ef          	jal	57ec <__gedf2>
    2f18:	0e054863          	bltz	a0,3008 <move+0x2c4>
    2f1c:	000a8513          	mv	a0,s5
    2f20:	000a0593          	mv	a1,s4
    2f24:	000c0613          	mv	a2,s8
    2f28:	000c8693          	mv	a3,s9
    2f2c:	195020ef          	jal	58c0 <__ledf2>
    2f30:	0ca04c63          	bgtz	a0,3008 <move+0x2c4>
    2f34:	00000c13          	li	s8,0
    2f38:	07800993          	li	s3,120
    2f3c:	06c0006f          	j	2fa8 <move+0x264>
    2f40:	040c8e63          	beqz	s9,2f9c <move+0x258>
    2f44:	01900513          	li	a0,25
    2f48:	fe7c8b93          	addi	s7,s9,-25
    2f4c:	00ac8cb3          	add	s9,s9,a0
    2f50:	05d020ef          	jal	57ac <__floatsidf>
    2f54:	00090613          	mv	a2,s2
    2f58:	00048693          	mv	a3,s1
    2f5c:	091020ef          	jal	57ec <__gedf2>
    2f60:	00050793          	mv	a5,a0
    2f64:	000b8513          	mv	a0,s7
    2f68:	0207ca63          	bltz	a5,2f9c <move+0x258>
    2f6c:	041020ef          	jal	57ac <__floatsidf>
    2f70:	000a8613          	mv	a2,s5
    2f74:	000a0693          	mv	a3,s4
    2f78:	149020ef          	jal	58c0 <__ledf2>
    2f7c:	00050793          	mv	a5,a0
    2f80:	000c8513          	mv	a0,s9
    2f84:	00f04c63          	bgtz	a5,2f9c <move+0x258>
    2f88:	025020ef          	jal	57ac <__floatsidf>
    2f8c:	000a8613          	mv	a2,s5
    2f90:	000a0693          	mv	a3,s4
    2f94:	059020ef          	jal	57ec <__gedf2>
    2f98:	04055263          	bgez	a0,2fdc <move+0x298>
    2f9c:	003c0c13          	addi	s8,s8,3
    2fa0:	00cb0b13          	addi	s6,s6,12
    2fa4:	053c0663          	beq	s8,s3,2ff0 <move+0x2ac>
    2fa8:	000b2403          	lw	s0,0(s6)
    2fac:	004b2c83          	lw	s9,4(s6)
    2fb0:	fe740513          	addi	a0,s0,-25
    2fb4:	f80406e3          	beqz	s0,2f40 <move+0x1fc>
    2fb8:	7f4020ef          	jal	57ac <__floatsidf>
    2fbc:	00090613          	mv	a2,s2
    2fc0:	00048693          	mv	a3,s1
    2fc4:	0fd020ef          	jal	58c0 <__ledf2>
    2fc8:	fca04ae3          	bgtz	a0,2f9c <move+0x258>
    2fcc:	fe7c8b93          	addi	s7,s9,-25
    2fd0:	01940513          	addi	a0,s0,25
    2fd4:	019c8c93          	addi	s9,s9,25
    2fd8:	f79ff06f          	j	2f50 <move+0x20c>
    2fdc:	00c12703          	lw	a4,12(sp)
    2fe0:	002c1793          	slli	a5,s8,0x2
    2fe4:	00f70db3          	add	s11,a4,a5
    2fe8:	508da783          	lw	a5,1288(s11)
    2fec:	00079e63          	bnez	a5,3008 <move+0x2c4>
    2ff0:	000065b7          	lui	a1,0x6
    2ff4:	000066b7          	lui	a3,0x6
    2ff8:	2b25a423          	sw	s2,680(a1) # 62a8 <player_x>
    2ffc:	2a95a623          	sw	s1,684(a1)
    3000:	2b56a023          	sw	s5,672(a3) # 62a0 <player_y>
    3004:	2b46a223          	sw	s4,676(a3)
    3008:	04812403          	lw	s0,72(sp)
    300c:	04c12083          	lw	ra,76(sp)
    3010:	04412483          	lw	s1,68(sp)
    3014:	04012903          	lw	s2,64(sp)
    3018:	03c12983          	lw	s3,60(sp)
    301c:	03812a03          	lw	s4,56(sp)
    3020:	03412a83          	lw	s5,52(sp)
    3024:	03012b03          	lw	s6,48(sp)
    3028:	02c12b83          	lw	s7,44(sp)
    302c:	02812c03          	lw	s8,40(sp)
    3030:	02412c83          	lw	s9,36(sp)
    3034:	02012d03          	lw	s10,32(sp)
    3038:	01c12d83          	lw	s11,28(sp)
    303c:	05010113          	addi	sp,sp,80
    3040:	bc9fd06f          	j	c08 <print_coords>
    3044:	d6040ee3          	beqz	s0,2dc0 <move+0x7c>
    3048:	00006937          	lui	s2,0x6
    304c:	000067b7          	lui	a5,0x6
    3050:	29892503          	lw	a0,664(s2) # 6298 <player_dir>
    3054:	29c92583          	lw	a1,668(s2)
    3058:	7687a603          	lw	a2,1896(a5) # 6768 <MAP_WIDTH+0xe4>
    305c:	76c7a683          	lw	a3,1900(a5)
    3060:	0e8020ef          	jal	5148 <__adddf3>
    3064:	6000006f          	j	3664 <move+0x920>
    3068:	d40704e3          	beqz	a4,2db0 <move+0x6c>
    306c:	000067b7          	lui	a5,0x6
    3070:	000064b7          	lui	s1,0x6
    3074:	29c7aa03          	lw	s4,668(a5) # 629c <player_dir+0x4>
    3078:	2987aa83          	lw	s5,664(a5)
    307c:	6b04a603          	lw	a2,1712(s1) # 66b0 <MAP_WIDTH+0x2c>
    3080:	6b44a683          	lw	a3,1716(s1)
    3084:	000a8513          	mv	a0,s5
    3088:	000a0593          	mv	a1,s4
    308c:	7d4020ef          	jal	5860 <__gtdf2>
    3090:	48a04ce3          	bgtz	a0,3d28 <move+0xfe4>
    3094:	000067b7          	lui	a5,0x6
    3098:	6b87a603          	lw	a2,1720(a5) # 66b8 <MAP_WIDTH+0x34>
    309c:	6bc7a683          	lw	a3,1724(a5)
    30a0:	000a8513          	mv	a0,s5
    30a4:	000a0593          	mv	a1,s4
    30a8:	081020ef          	jal	5928 <__ltdf2>
    30ac:	00055463          	bgez	a0,30b4 <move+0x370>
    30b0:	22c0106f          	j	42dc <move+0x1598>
    30b4:	000a8993          	mv	s3,s5
    30b8:	000a0913          	mv	s2,s4
    30bc:	00000c93          	li	s9,0
    30c0:	00000613          	li	a2,0
    30c4:	00000693          	li	a3,0
    30c8:	00098513          	mv	a0,s3
    30cc:	00090593          	mv	a1,s2
    30d0:	078020ef          	jal	5148 <__adddf3>
    30d4:	00050b13          	mv	s6,a0
    30d8:	00058b93          	mv	s7,a1
    30dc:	00098613          	mv	a2,s3
    30e0:	00090693          	mv	a3,s2
    30e4:	00098513          	mv	a0,s3
    30e8:	00090593          	mv	a1,s2
    30ec:	0a5020ef          	jal	5990 <__muldf3>
    30f0:	00050613          	mv	a2,a0
    30f4:	00058693          	mv	a3,a1
    30f8:	00098513          	mv	a0,s3
    30fc:	00090593          	mv	a1,s2
    3100:	091020ef          	jal	5990 <__muldf3>
    3104:	000067b7          	lui	a5,0x6
    3108:	6c87a603          	lw	a2,1736(a5) # 66c8 <MAP_WIDTH+0x44>
    310c:	6cc7a683          	lw	a3,1740(a5)
    3110:	80000c37          	lui	s8,0x80000
    3114:	00058d93          	mv	s11,a1
    3118:	00bc45b3          	xor	a1,s8,a1
    311c:	00050d13          	mv	s10,a0
    3120:	338020ef          	jal	5458 <__divdf3>
    3124:	000b0613          	mv	a2,s6
    3128:	000b8693          	mv	a3,s7
    312c:	01c020ef          	jal	5148 <__adddf3>
    3130:	00050b13          	mv	s6,a0
    3134:	00058b93          	mv	s7,a1
    3138:	000d0613          	mv	a2,s10
    313c:	000d8693          	mv	a3,s11
    3140:	00098513          	mv	a0,s3
    3144:	00090593          	mv	a1,s2
    3148:	049020ef          	jal	5990 <__muldf3>
    314c:	00050613          	mv	a2,a0
    3150:	00058693          	mv	a3,a1
    3154:	00098513          	mv	a0,s3
    3158:	00090593          	mv	a1,s2
    315c:	035020ef          	jal	5990 <__muldf3>
    3160:	000067b7          	lui	a5,0x6
    3164:	6d07a603          	lw	a2,1744(a5) # 66d0 <MAP_WIDTH+0x4c>
    3168:	6d47a683          	lw	a3,1748(a5)
    316c:	00050d13          	mv	s10,a0
    3170:	00058d93          	mv	s11,a1
    3174:	2e4020ef          	jal	5458 <__divdf3>
    3178:	000b0613          	mv	a2,s6
    317c:	000b8693          	mv	a3,s7
    3180:	7c9010ef          	jal	5148 <__adddf3>
    3184:	00050b13          	mv	s6,a0
    3188:	00058b93          	mv	s7,a1
    318c:	000d0613          	mv	a2,s10
    3190:	000d8693          	mv	a3,s11
    3194:	00098513          	mv	a0,s3
    3198:	00090593          	mv	a1,s2
    319c:	7f4020ef          	jal	5990 <__muldf3>
    31a0:	00098613          	mv	a2,s3
    31a4:	00090693          	mv	a3,s2
    31a8:	7e8020ef          	jal	5990 <__muldf3>
    31ac:	0185c7b3          	xor	a5,a1,s8
    31b0:	00078593          	mv	a1,a5
    31b4:	000067b7          	lui	a5,0x6
    31b8:	6d87a603          	lw	a2,1752(a5) # 66d8 <MAP_WIDTH+0x54>
    31bc:	6dc7a683          	lw	a3,1756(a5)
    31c0:	298020ef          	jal	5458 <__divdf3>
    31c4:	000b0613          	mv	a2,s6
    31c8:	000b8693          	mv	a3,s7
    31cc:	77d010ef          	jal	5148 <__adddf3>
    31d0:	00058793          	mv	a5,a1
    31d4:	000c8463          	beqz	s9,31dc <move+0x498>
    31d8:	00bc47b3          	xor	a5,s8,a1
    31dc:	00078593          	mv	a1,a5
    31e0:	000067b7          	lui	a5,0x6
    31e4:	7607a603          	lw	a2,1888(a5) # 6760 <MAP_WIDTH+0xdc>
    31e8:	7647a683          	lw	a3,1892(a5)
    31ec:	7a4020ef          	jal	5990 <__muldf3>
    31f0:	6b04a603          	lw	a2,1712(s1)
    31f4:	6b44a683          	lw	a3,1716(s1)
    31f8:	00050b93          	mv	s7,a0
    31fc:	00058c13          	mv	s8,a1
    3200:	000a8513          	mv	a0,s5
    3204:	000a0593          	mv	a1,s4
    3208:	658020ef          	jal	5860 <__gtdf2>
    320c:	3ea044e3          	bgtz	a0,3df4 <move+0x10b0>
    3210:	000067b7          	lui	a5,0x6
    3214:	6b87a603          	lw	a2,1720(a5) # 66b8 <MAP_WIDTH+0x34>
    3218:	6bc7a683          	lw	a3,1724(a5)
    321c:	000a8513          	mv	a0,s5
    3220:	000a0593          	mv	a1,s4
    3224:	704020ef          	jal	5928 <__ltdf2>
    3228:	00054463          	bltz	a0,3230 <move+0x4ec>
    322c:	6990006f          	j	40c4 <move+0x1380>
    3230:	000067b7          	lui	a5,0x6
    3234:	6c07a603          	lw	a2,1728(a5) # 66c0 <MAP_WIDTH+0x3c>
    3238:	6c47a683          	lw	a3,1732(a5)
    323c:	000a8513          	mv	a0,s5
    3240:	000a0593          	mv	a1,s4
    3244:	705010ef          	jal	5148 <__adddf3>
    3248:	00050c93          	mv	s9,a0
    324c:	00058b13          	mv	s6,a1
    3250:	000c8613          	mv	a2,s9
    3254:	000b0693          	mv	a3,s6
    3258:	000c8513          	mv	a0,s9
    325c:	000b0593          	mv	a1,s6
    3260:	730020ef          	jal	5990 <__muldf3>
    3264:	000067b7          	lui	a5,0x6
    3268:	6e07a603          	lw	a2,1760(a5) # 66e0 <MAP_WIDTH+0x5c>
    326c:	6e47a683          	lw	a3,1764(a5)
    3270:	800004b7          	lui	s1,0x80000
    3274:	00058a93          	mv	s5,a1
    3278:	00b4c5b3          	xor	a1,s1,a1
    327c:	00050a13          	mv	s4,a0
    3280:	710020ef          	jal	5990 <__muldf3>
    3284:	000067b7          	lui	a5,0x6
    3288:	6a87a603          	lw	a2,1704(a5) # 66a8 <MAP_WIDTH+0x24>
    328c:	6ac7a683          	lw	a3,1708(a5)
    3290:	6b9010ef          	jal	5148 <__adddf3>
    3294:	00050913          	mv	s2,a0
    3298:	00058993          	mv	s3,a1
    329c:	000a0513          	mv	a0,s4
    32a0:	000a8593          	mv	a1,s5
    32a4:	000c8613          	mv	a2,s9
    32a8:	000b0693          	mv	a3,s6
    32ac:	6e4020ef          	jal	5990 <__muldf3>
    32b0:	000c8613          	mv	a2,s9
    32b4:	000b0693          	mv	a3,s6
    32b8:	6d8020ef          	jal	5990 <__muldf3>
    32bc:	000067b7          	lui	a5,0x6
    32c0:	6e87a603          	lw	a2,1768(a5) # 66e8 <MAP_WIDTH+0x64>
    32c4:	6ec7a683          	lw	a3,1772(a5)
    32c8:	00050a13          	mv	s4,a0
    32cc:	00058a93          	mv	s5,a1
    32d0:	188020ef          	jal	5458 <__divdf3>
    32d4:	00090613          	mv	a2,s2
    32d8:	00098693          	mv	a3,s3
    32dc:	66d010ef          	jal	5148 <__adddf3>
    32e0:	00050913          	mv	s2,a0
    32e4:	00058993          	mv	s3,a1
    32e8:	000c8613          	mv	a2,s9
    32ec:	000b0693          	mv	a3,s6
    32f0:	000a0513          	mv	a0,s4
    32f4:	000a8593          	mv	a1,s5
    32f8:	698020ef          	jal	5990 <__muldf3>
    32fc:	000c8613          	mv	a2,s9
    3300:	000b0693          	mv	a3,s6
    3304:	68c020ef          	jal	5990 <__muldf3>
    3308:	0095c7b3          	xor	a5,a1,s1
    330c:	00078593          	mv	a1,a5
    3310:	000067b7          	lui	a5,0x6
    3314:	6f07a603          	lw	a2,1776(a5) # 66f0 <MAP_WIDTH+0x6c>
    3318:	6f47a683          	lw	a3,1780(a5)
    331c:	13c020ef          	jal	5458 <__divdf3>
    3320:	00090613          	mv	a2,s2
    3324:	00098693          	mv	a3,s3
    3328:	621010ef          	jal	5148 <__adddf3>
    332c:	00050713          	mv	a4,a0
    3330:	00b4c7b3          	xor	a5,s1,a1
    3334:	00078593          	mv	a1,a5
    3338:	000067b7          	lui	a5,0x6
    333c:	7007a603          	lw	a2,1792(a5) # 6700 <MAP_WIDTH+0x7c>
    3340:	7047a683          	lw	a3,1796(a5)
    3344:	00070513          	mv	a0,a4
    3348:	648020ef          	jal	5990 <__muldf3>
    334c:	00a12223          	sw	a0,4(sp)
    3350:	00b12423          	sw	a1,8(sp)
    3354:	a5dff06f          	j	2db0 <move+0x6c>
    3358:	a2070ce3          	beqz	a4,2d90 <move+0x4c>
    335c:	000067b7          	lui	a5,0x6
    3360:	000064b7          	lui	s1,0x6
    3364:	29c7aa03          	lw	s4,668(a5) # 629c <player_dir+0x4>
    3368:	2987aa83          	lw	s5,664(a5)
    336c:	6b04a603          	lw	a2,1712(s1) # 66b0 <MAP_WIDTH+0x2c>
    3370:	6b44a683          	lw	a3,1716(s1)
    3374:	000a8513          	mv	a0,s5
    3378:	000a0593          	mv	a1,s4
    337c:	4e4020ef          	jal	5860 <__gtdf2>
    3380:	22a040e3          	bgtz	a0,3da0 <move+0x105c>
    3384:	000067b7          	lui	a5,0x6
    3388:	6b87a603          	lw	a2,1720(a5) # 66b8 <MAP_WIDTH+0x34>
    338c:	6bc7a683          	lw	a3,1724(a5)
    3390:	000a8513          	mv	a0,s5
    3394:	000a0593          	mv	a1,s4
    3398:	590020ef          	jal	5928 <__ltdf2>
    339c:	00055463          	bgez	a0,33a4 <move+0x660>
    33a0:	7150006f          	j	42b4 <move+0x1570>
    33a4:	000a8993          	mv	s3,s5
    33a8:	000a0913          	mv	s2,s4
    33ac:	00000c93          	li	s9,0
    33b0:	00000613          	li	a2,0
    33b4:	00000693          	li	a3,0
    33b8:	00098513          	mv	a0,s3
    33bc:	00090593          	mv	a1,s2
    33c0:	589010ef          	jal	5148 <__adddf3>
    33c4:	00050b13          	mv	s6,a0
    33c8:	00058b93          	mv	s7,a1
    33cc:	00098613          	mv	a2,s3
    33d0:	00090693          	mv	a3,s2
    33d4:	00098513          	mv	a0,s3
    33d8:	00090593          	mv	a1,s2
    33dc:	5b4020ef          	jal	5990 <__muldf3>
    33e0:	00050613          	mv	a2,a0
    33e4:	00058693          	mv	a3,a1
    33e8:	00098513          	mv	a0,s3
    33ec:	00090593          	mv	a1,s2
    33f0:	5a0020ef          	jal	5990 <__muldf3>
    33f4:	000067b7          	lui	a5,0x6
    33f8:	6c87a603          	lw	a2,1736(a5) # 66c8 <MAP_WIDTH+0x44>
    33fc:	6cc7a683          	lw	a3,1740(a5)
    3400:	80000c37          	lui	s8,0x80000
    3404:	00058d93          	mv	s11,a1
    3408:	00bc45b3          	xor	a1,s8,a1
    340c:	00050d13          	mv	s10,a0
    3410:	048020ef          	jal	5458 <__divdf3>
    3414:	000b0613          	mv	a2,s6
    3418:	000b8693          	mv	a3,s7
    341c:	52d010ef          	jal	5148 <__adddf3>
    3420:	00050b13          	mv	s6,a0
    3424:	00058b93          	mv	s7,a1
    3428:	000d0613          	mv	a2,s10
    342c:	000d8693          	mv	a3,s11
    3430:	00098513          	mv	a0,s3
    3434:	00090593          	mv	a1,s2
    3438:	558020ef          	jal	5990 <__muldf3>
    343c:	00050613          	mv	a2,a0
    3440:	00058693          	mv	a3,a1
    3444:	00098513          	mv	a0,s3
    3448:	00090593          	mv	a1,s2
    344c:	544020ef          	jal	5990 <__muldf3>
    3450:	000067b7          	lui	a5,0x6
    3454:	6d07a603          	lw	a2,1744(a5) # 66d0 <MAP_WIDTH+0x4c>
    3458:	6d47a683          	lw	a3,1748(a5)
    345c:	00050d13          	mv	s10,a0
    3460:	00058d93          	mv	s11,a1
    3464:	7f5010ef          	jal	5458 <__divdf3>
    3468:	000b0613          	mv	a2,s6
    346c:	000b8693          	mv	a3,s7
    3470:	4d9010ef          	jal	5148 <__adddf3>
    3474:	00050b13          	mv	s6,a0
    3478:	00058b93          	mv	s7,a1
    347c:	000d0613          	mv	a2,s10
    3480:	000d8693          	mv	a3,s11
    3484:	00098513          	mv	a0,s3
    3488:	00090593          	mv	a1,s2
    348c:	504020ef          	jal	5990 <__muldf3>
    3490:	00050613          	mv	a2,a0
    3494:	00058693          	mv	a3,a1
    3498:	00098513          	mv	a0,s3
    349c:	00090593          	mv	a1,s2
    34a0:	4f0020ef          	jal	5990 <__muldf3>
    34a4:	0185c7b3          	xor	a5,a1,s8
    34a8:	00078593          	mv	a1,a5
    34ac:	000067b7          	lui	a5,0x6
    34b0:	6d87a603          	lw	a2,1752(a5) # 66d8 <MAP_WIDTH+0x54>
    34b4:	6dc7a683          	lw	a3,1756(a5)
    34b8:	7a1010ef          	jal	5458 <__divdf3>
    34bc:	000b0613          	mv	a2,s6
    34c0:	000b8693          	mv	a3,s7
    34c4:	485010ef          	jal	5148 <__adddf3>
    34c8:	00058793          	mv	a5,a1
    34cc:	000c8463          	beqz	s9,34d4 <move+0x790>
    34d0:	00bc47b3          	xor	a5,s8,a1
    34d4:	00006b37          	lui	s6,0x6
    34d8:	760b2603          	lw	a2,1888(s6) # 6760 <MAP_WIDTH+0xdc>
    34dc:	764b2683          	lw	a3,1892(s6)
    34e0:	00078593          	mv	a1,a5
    34e4:	4ac020ef          	jal	5990 <__muldf3>
    34e8:	6b04a603          	lw	a2,1712(s1)
    34ec:	6b44a683          	lw	a3,1716(s1)
    34f0:	00a12223          	sw	a0,4(sp)
    34f4:	00b12423          	sw	a1,8(sp)
    34f8:	000a8513          	mv	a0,s5
    34fc:	000a0593          	mv	a1,s4
    3500:	360020ef          	jal	5860 <__gtdf2>
    3504:	10a04ae3          	bgtz	a0,3e18 <move+0x10d4>
    3508:	000067b7          	lui	a5,0x6
    350c:	6b87a603          	lw	a2,1720(a5) # 66b8 <MAP_WIDTH+0x34>
    3510:	6bc7a683          	lw	a3,1724(a5)
    3514:	000a8513          	mv	a0,s5
    3518:	000a0593          	mv	a1,s4
    351c:	40c020ef          	jal	5928 <__ltdf2>
    3520:	48055ee3          	bgez	a0,41bc <move+0x1478>
    3524:	000067b7          	lui	a5,0x6
    3528:	6c07a603          	lw	a2,1728(a5) # 66c0 <MAP_WIDTH+0x3c>
    352c:	6c47a683          	lw	a3,1732(a5)
    3530:	000a8513          	mv	a0,s5
    3534:	000a0593          	mv	a1,s4
    3538:	411010ef          	jal	5148 <__adddf3>
    353c:	00050b93          	mv	s7,a0
    3540:	00058493          	mv	s1,a1
    3544:	000b8613          	mv	a2,s7
    3548:	00048693          	mv	a3,s1
    354c:	000b8513          	mv	a0,s7
    3550:	00048593          	mv	a1,s1
    3554:	43c020ef          	jal	5990 <__muldf3>
    3558:	000067b7          	lui	a5,0x6
    355c:	6e07a603          	lw	a2,1760(a5) # 66e0 <MAP_WIDTH+0x5c>
    3560:	6e47a683          	lw	a3,1764(a5)
    3564:	80000c37          	lui	s8,0x80000
    3568:	00058993          	mv	s3,a1
    356c:	00bc45b3          	xor	a1,s8,a1
    3570:	00050913          	mv	s2,a0
    3574:	41c020ef          	jal	5990 <__muldf3>
    3578:	000067b7          	lui	a5,0x6
    357c:	6a87a603          	lw	a2,1704(a5) # 66a8 <MAP_WIDTH+0x24>
    3580:	6ac7a683          	lw	a3,1708(a5)
    3584:	3c5010ef          	jal	5148 <__adddf3>
    3588:	00050a13          	mv	s4,a0
    358c:	00058a93          	mv	s5,a1
    3590:	00090513          	mv	a0,s2
    3594:	00098593          	mv	a1,s3
    3598:	000b8613          	mv	a2,s7
    359c:	00048693          	mv	a3,s1
    35a0:	3f0020ef          	jal	5990 <__muldf3>
    35a4:	000b8613          	mv	a2,s7
    35a8:	00048693          	mv	a3,s1
    35ac:	3e4020ef          	jal	5990 <__muldf3>
    35b0:	000067b7          	lui	a5,0x6
    35b4:	6e87a603          	lw	a2,1768(a5) # 66e8 <MAP_WIDTH+0x64>
    35b8:	6ec7a683          	lw	a3,1772(a5)
    35bc:	00050913          	mv	s2,a0
    35c0:	00058993          	mv	s3,a1
    35c4:	695010ef          	jal	5458 <__divdf3>
    35c8:	000a0613          	mv	a2,s4
    35cc:	000a8693          	mv	a3,s5
    35d0:	379010ef          	jal	5148 <__adddf3>
    35d4:	00050a13          	mv	s4,a0
    35d8:	00058a93          	mv	s5,a1
    35dc:	000b8613          	mv	a2,s7
    35e0:	00048693          	mv	a3,s1
    35e4:	00090513          	mv	a0,s2
    35e8:	00098593          	mv	a1,s3
    35ec:	3a4020ef          	jal	5990 <__muldf3>
    35f0:	000b8613          	mv	a2,s7
    35f4:	00048693          	mv	a3,s1
    35f8:	398020ef          	jal	5990 <__muldf3>
    35fc:	0185c7b3          	xor	a5,a1,s8
    3600:	00078593          	mv	a1,a5
    3604:	000067b7          	lui	a5,0x6
    3608:	6f07a603          	lw	a2,1776(a5) # 66f0 <MAP_WIDTH+0x6c>
    360c:	6f47a683          	lw	a3,1780(a5)
    3610:	649010ef          	jal	5458 <__divdf3>
    3614:	000a0613          	mv	a2,s4
    3618:	000a8693          	mv	a3,s5
    361c:	32d010ef          	jal	5148 <__adddf3>
    3620:	00050713          	mv	a4,a0
    3624:	00bc47b3          	xor	a5,s8,a1
    3628:	760b2603          	lw	a2,1888(s6)
    362c:	764b2683          	lw	a3,1892(s6)
    3630:	00070513          	mv	a0,a4
    3634:	00078593          	mv	a1,a5
    3638:	358020ef          	jal	5990 <__muldf3>
    363c:	00050b93          	mv	s7,a0
    3640:	00058c13          	mv	s8,a1
    3644:	f5cff06f          	j	2da0 <move+0x5c>
    3648:	00006937          	lui	s2,0x6
    364c:	000067b7          	lui	a5,0x6
    3650:	29892503          	lw	a0,664(s2) # 6298 <player_dir>
    3654:	29c92583          	lw	a1,668(s2)
    3658:	7687a603          	lw	a2,1896(a5) # 6768 <MAP_WIDTH+0xe4>
    365c:	76c7a683          	lw	a3,1900(a5)
    3660:	2e1010ef          	jal	5140 <__subdf3>
    3664:	000067b7          	lui	a5,0x6
    3668:	6c07a603          	lw	a2,1728(a5) # 66c0 <MAP_WIDTH+0x3c>
    366c:	6c47a683          	lw	a3,1732(a5)
    3670:	00050493          	mv	s1,a0
    3674:	00058413          	mv	s0,a1
    3678:	1e8020ef          	jal	5860 <__gtdf2>
    367c:	74a04663          	bgtz	a0,3dc8 <move+0x1084>
    3680:	000067b7          	lui	a5,0x6
    3684:	7487a603          	lw	a2,1864(a5) # 6748 <MAP_WIDTH+0xc4>
    3688:	74c7a683          	lw	a3,1868(a5)
    368c:	00048513          	mv	a0,s1
    3690:	00040593          	mv	a1,s0
    3694:	294020ef          	jal	5928 <__ltdf2>
    3698:	02055263          	bgez	a0,36bc <move+0x978>
    369c:	000067b7          	lui	a5,0x6
    36a0:	7407a603          	lw	a2,1856(a5) # 6740 <MAP_WIDTH+0xbc>
    36a4:	7447a683          	lw	a3,1860(a5)
    36a8:	00048513          	mv	a0,s1
    36ac:	00040593          	mv	a1,s0
    36b0:	299010ef          	jal	5148 <__adddf3>
    36b4:	00050493          	mv	s1,a0
    36b8:	00058413          	mv	s0,a1
    36bc:	28992c23          	sw	s1,664(s2)
    36c0:	28892e23          	sw	s0,668(s2)
    36c4:	efcff06f          	j	2dc0 <move+0x7c>
    36c8:	000067b7          	lui	a5,0x6
    36cc:	000064b7          	lui	s1,0x6
    36d0:	29c7aa03          	lw	s4,668(a5) # 629c <player_dir+0x4>
    36d4:	2987aa83          	lw	s5,664(a5)
    36d8:	6b04a603          	lw	a2,1712(s1) # 66b0 <MAP_WIDTH+0x2c>
    36dc:	6b44a683          	lw	a3,1716(s1)
    36e0:	000a8513          	mv	a0,s5
    36e4:	000a0593          	mv	a1,s4
    36e8:	178020ef          	jal	5860 <__gtdf2>
    36ec:	68a04663          	bgtz	a0,3d78 <move+0x1034>
    36f0:	000067b7          	lui	a5,0x6
    36f4:	6b87a603          	lw	a2,1720(a5) # 66b8 <MAP_WIDTH+0x34>
    36f8:	6bc7a683          	lw	a3,1724(a5)
    36fc:	000a8513          	mv	a0,s5
    3700:	000a0593          	mv	a1,s4
    3704:	224020ef          	jal	5928 <__ltdf2>
    3708:	160546e3          	bltz	a0,4074 <move+0x1330>
    370c:	000a8993          	mv	s3,s5
    3710:	000a0913          	mv	s2,s4
    3714:	00000c93          	li	s9,0
    3718:	00000613          	li	a2,0
    371c:	00000693          	li	a3,0
    3720:	00098513          	mv	a0,s3
    3724:	00090593          	mv	a1,s2
    3728:	221010ef          	jal	5148 <__adddf3>
    372c:	00050b13          	mv	s6,a0
    3730:	00058b93          	mv	s7,a1
    3734:	00098613          	mv	a2,s3
    3738:	00090693          	mv	a3,s2
    373c:	00098513          	mv	a0,s3
    3740:	00090593          	mv	a1,s2
    3744:	24c020ef          	jal	5990 <__muldf3>
    3748:	00050613          	mv	a2,a0
    374c:	00058693          	mv	a3,a1
    3750:	00098513          	mv	a0,s3
    3754:	00090593          	mv	a1,s2
    3758:	238020ef          	jal	5990 <__muldf3>
    375c:	000067b7          	lui	a5,0x6
    3760:	6c87a603          	lw	a2,1736(a5) # 66c8 <MAP_WIDTH+0x44>
    3764:	6cc7a683          	lw	a3,1740(a5)
    3768:	80000c37          	lui	s8,0x80000
    376c:	00058d93          	mv	s11,a1
    3770:	00bc45b3          	xor	a1,s8,a1
    3774:	00050d13          	mv	s10,a0
    3778:	4e1010ef          	jal	5458 <__divdf3>
    377c:	000b0613          	mv	a2,s6
    3780:	000b8693          	mv	a3,s7
    3784:	1c5010ef          	jal	5148 <__adddf3>
    3788:	00050b13          	mv	s6,a0
    378c:	00058b93          	mv	s7,a1
    3790:	000d0613          	mv	a2,s10
    3794:	000d8693          	mv	a3,s11
    3798:	00098513          	mv	a0,s3
    379c:	00090593          	mv	a1,s2
    37a0:	1f0020ef          	jal	5990 <__muldf3>
    37a4:	00050613          	mv	a2,a0
    37a8:	00058693          	mv	a3,a1
    37ac:	00098513          	mv	a0,s3
    37b0:	00090593          	mv	a1,s2
    37b4:	1dc020ef          	jal	5990 <__muldf3>
    37b8:	000067b7          	lui	a5,0x6
    37bc:	6d07a603          	lw	a2,1744(a5) # 66d0 <MAP_WIDTH+0x4c>
    37c0:	6d47a683          	lw	a3,1748(a5)
    37c4:	00050d13          	mv	s10,a0
    37c8:	00058d93          	mv	s11,a1
    37cc:	48d010ef          	jal	5458 <__divdf3>
    37d0:	000b0613          	mv	a2,s6
    37d4:	000b8693          	mv	a3,s7
    37d8:	171010ef          	jal	5148 <__adddf3>
    37dc:	00050b13          	mv	s6,a0
    37e0:	00058b93          	mv	s7,a1
    37e4:	000d0613          	mv	a2,s10
    37e8:	000d8693          	mv	a3,s11
    37ec:	00098513          	mv	a0,s3
    37f0:	00090593          	mv	a1,s2
    37f4:	19c020ef          	jal	5990 <__muldf3>
    37f8:	00098613          	mv	a2,s3
    37fc:	00090693          	mv	a3,s2
    3800:	190020ef          	jal	5990 <__muldf3>
    3804:	0185c7b3          	xor	a5,a1,s8
    3808:	00078593          	mv	a1,a5
    380c:	000067b7          	lui	a5,0x6
    3810:	6d87a603          	lw	a2,1752(a5) # 66d8 <MAP_WIDTH+0x54>
    3814:	6dc7a683          	lw	a3,1756(a5)
    3818:	441010ef          	jal	5458 <__divdf3>
    381c:	000b0613          	mv	a2,s6
    3820:	000b8693          	mv	a3,s7
    3824:	125010ef          	jal	5148 <__adddf3>
    3828:	00058793          	mv	a5,a1
    382c:	000c8463          	beqz	s9,3834 <move+0xaf0>
    3830:	00bc47b3          	xor	a5,s8,a1
    3834:	00078593          	mv	a1,a5
    3838:	000067b7          	lui	a5,0x6
    383c:	7007a603          	lw	a2,1792(a5) # 6700 <MAP_WIDTH+0x7c>
    3840:	7047a683          	lw	a3,1796(a5)
    3844:	14c020ef          	jal	5990 <__muldf3>
    3848:	6b04a603          	lw	a2,1712(s1)
    384c:	6b44a683          	lw	a3,1716(s1)
    3850:	00050b93          	mv	s7,a0
    3854:	00058c13          	mv	s8,a1
    3858:	000a8513          	mv	a0,s5
    385c:	000a0593          	mv	a1,s4
    3860:	000020ef          	jal	5860 <__gtdf2>
    3864:	5ca04c63          	bgtz	a0,3e3c <move+0x10f8>
    3868:	000067b7          	lui	a5,0x6
    386c:	6b87a603          	lw	a2,1720(a5) # 66b8 <MAP_WIDTH+0x34>
    3870:	6bc7a683          	lw	a3,1724(a5)
    3874:	000a8513          	mv	a0,s5
    3878:	000a0593          	mv	a1,s4
    387c:	0ac020ef          	jal	5928 <__ltdf2>
    3880:	60055263          	bgez	a0,3e84 <move+0x1140>
    3884:	000067b7          	lui	a5,0x6
    3888:	6c07a603          	lw	a2,1728(a5) # 66c0 <MAP_WIDTH+0x3c>
    388c:	6c47a683          	lw	a3,1732(a5)
    3890:	000a8513          	mv	a0,s5
    3894:	000a0593          	mv	a1,s4
    3898:	0b1010ef          	jal	5148 <__adddf3>
    389c:	00050c93          	mv	s9,a0
    38a0:	00058b13          	mv	s6,a1
    38a4:	000c8613          	mv	a2,s9
    38a8:	000b0693          	mv	a3,s6
    38ac:	000c8513          	mv	a0,s9
    38b0:	000b0593          	mv	a1,s6
    38b4:	0dc020ef          	jal	5990 <__muldf3>
    38b8:	000067b7          	lui	a5,0x6
    38bc:	6e07a603          	lw	a2,1760(a5) # 66e0 <MAP_WIDTH+0x5c>
    38c0:	6e47a683          	lw	a3,1764(a5)
    38c4:	800004b7          	lui	s1,0x80000
    38c8:	00058a93          	mv	s5,a1
    38cc:	00b4c5b3          	xor	a1,s1,a1
    38d0:	00050a13          	mv	s4,a0
    38d4:	0bc020ef          	jal	5990 <__muldf3>
    38d8:	000067b7          	lui	a5,0x6
    38dc:	6a87a603          	lw	a2,1704(a5) # 66a8 <MAP_WIDTH+0x24>
    38e0:	6ac7a683          	lw	a3,1708(a5)
    38e4:	065010ef          	jal	5148 <__adddf3>
    38e8:	00050913          	mv	s2,a0
    38ec:	00058993          	mv	s3,a1
    38f0:	000a0513          	mv	a0,s4
    38f4:	000a8593          	mv	a1,s5
    38f8:	000c8613          	mv	a2,s9
    38fc:	000b0693          	mv	a3,s6
    3900:	090020ef          	jal	5990 <__muldf3>
    3904:	000c8613          	mv	a2,s9
    3908:	000b0693          	mv	a3,s6
    390c:	084020ef          	jal	5990 <__muldf3>
    3910:	000067b7          	lui	a5,0x6
    3914:	6e87a603          	lw	a2,1768(a5) # 66e8 <MAP_WIDTH+0x64>
    3918:	6ec7a683          	lw	a3,1772(a5)
    391c:	00050a13          	mv	s4,a0
    3920:	00058a93          	mv	s5,a1
    3924:	335010ef          	jal	5458 <__divdf3>
    3928:	00090613          	mv	a2,s2
    392c:	00098693          	mv	a3,s3
    3930:	019010ef          	jal	5148 <__adddf3>
    3934:	00050913          	mv	s2,a0
    3938:	00058993          	mv	s3,a1
    393c:	000c8613          	mv	a2,s9
    3940:	000b0693          	mv	a3,s6
    3944:	000a0513          	mv	a0,s4
    3948:	000a8593          	mv	a1,s5
    394c:	044020ef          	jal	5990 <__muldf3>
    3950:	000c8613          	mv	a2,s9
    3954:	000b0693          	mv	a3,s6
    3958:	038020ef          	jal	5990 <__muldf3>
    395c:	0095c7b3          	xor	a5,a1,s1
    3960:	00078593          	mv	a1,a5
    3964:	000067b7          	lui	a5,0x6
    3968:	6f07a603          	lw	a2,1776(a5) # 66f0 <MAP_WIDTH+0x6c>
    396c:	6f47a683          	lw	a3,1780(a5)
    3970:	2e9010ef          	jal	5458 <__divdf3>
    3974:	00090613          	mv	a2,s2
    3978:	00098693          	mv	a3,s3
    397c:	7cc010ef          	jal	5148 <__adddf3>
    3980:	00050713          	mv	a4,a0
    3984:	00b4c7b3          	xor	a5,s1,a1
    3988:	00078593          	mv	a1,a5
    398c:	000067b7          	lui	a5,0x6
    3990:	7607a603          	lw	a2,1888(a5) # 6760 <MAP_WIDTH+0xdc>
    3994:	7647a683          	lw	a3,1892(a5)
    3998:	00070513          	mv	a0,a4
    399c:	7f5010ef          	jal	5990 <__muldf3>
    39a0:	00a12223          	sw	a0,4(sp)
    39a4:	00b12423          	sw	a1,8(sp)
    39a8:	c08ff06f          	j	2db0 <move+0x6c>
    39ac:	000067b7          	lui	a5,0x6
    39b0:	000064b7          	lui	s1,0x6
    39b4:	29c7aa03          	lw	s4,668(a5) # 629c <player_dir+0x4>
    39b8:	2987aa83          	lw	s5,664(a5)
    39bc:	6b04a603          	lw	a2,1712(s1) # 66b0 <MAP_WIDTH+0x2c>
    39c0:	6b44a683          	lw	a3,1716(s1)
    39c4:	000a8513          	mv	a0,s5
    39c8:	000a0593          	mv	a1,s4
    39cc:	695010ef          	jal	5860 <__gtdf2>
    39d0:	38a04063          	bgtz	a0,3d50 <move+0x100c>
    39d4:	000067b7          	lui	a5,0x6
    39d8:	6b87a603          	lw	a2,1720(a5) # 66b8 <MAP_WIDTH+0x34>
    39dc:	6bc7a683          	lw	a3,1724(a5)
    39e0:	000a8513          	mv	a0,s5
    39e4:	000a0593          	mv	a1,s4
    39e8:	741010ef          	jal	5928 <__ltdf2>
    39ec:	6a054863          	bltz	a0,409c <move+0x1358>
    39f0:	000a8993          	mv	s3,s5
    39f4:	000a0913          	mv	s2,s4
    39f8:	00000c93          	li	s9,0
    39fc:	00000613          	li	a2,0
    3a00:	00000693          	li	a3,0
    3a04:	00098513          	mv	a0,s3
    3a08:	00090593          	mv	a1,s2
    3a0c:	73c010ef          	jal	5148 <__adddf3>
    3a10:	00050b13          	mv	s6,a0
    3a14:	00058b93          	mv	s7,a1
    3a18:	00098613          	mv	a2,s3
    3a1c:	00090693          	mv	a3,s2
    3a20:	00098513          	mv	a0,s3
    3a24:	00090593          	mv	a1,s2
    3a28:	769010ef          	jal	5990 <__muldf3>
    3a2c:	00050613          	mv	a2,a0
    3a30:	00058693          	mv	a3,a1
    3a34:	00098513          	mv	a0,s3
    3a38:	00090593          	mv	a1,s2
    3a3c:	755010ef          	jal	5990 <__muldf3>
    3a40:	000067b7          	lui	a5,0x6
    3a44:	6c87a603          	lw	a2,1736(a5) # 66c8 <MAP_WIDTH+0x44>
    3a48:	6cc7a683          	lw	a3,1740(a5)
    3a4c:	80000c37          	lui	s8,0x80000
    3a50:	00058d93          	mv	s11,a1
    3a54:	00bc45b3          	xor	a1,s8,a1
    3a58:	00050d13          	mv	s10,a0
    3a5c:	1fd010ef          	jal	5458 <__divdf3>
    3a60:	000b0613          	mv	a2,s6
    3a64:	000b8693          	mv	a3,s7
    3a68:	6e0010ef          	jal	5148 <__adddf3>
    3a6c:	00050b13          	mv	s6,a0
    3a70:	00058b93          	mv	s7,a1
    3a74:	000d0613          	mv	a2,s10
    3a78:	000d8693          	mv	a3,s11
    3a7c:	00098513          	mv	a0,s3
    3a80:	00090593          	mv	a1,s2
    3a84:	70d010ef          	jal	5990 <__muldf3>
    3a88:	00050613          	mv	a2,a0
    3a8c:	00058693          	mv	a3,a1
    3a90:	00098513          	mv	a0,s3
    3a94:	00090593          	mv	a1,s2
    3a98:	6f9010ef          	jal	5990 <__muldf3>
    3a9c:	000067b7          	lui	a5,0x6
    3aa0:	6d07a603          	lw	a2,1744(a5) # 66d0 <MAP_WIDTH+0x4c>
    3aa4:	6d47a683          	lw	a3,1748(a5)
    3aa8:	00050d13          	mv	s10,a0
    3aac:	00058d93          	mv	s11,a1
    3ab0:	1a9010ef          	jal	5458 <__divdf3>
    3ab4:	000b0613          	mv	a2,s6
    3ab8:	000b8693          	mv	a3,s7
    3abc:	68c010ef          	jal	5148 <__adddf3>
    3ac0:	00050b13          	mv	s6,a0
    3ac4:	00058b93          	mv	s7,a1
    3ac8:	000d0613          	mv	a2,s10
    3acc:	000d8693          	mv	a3,s11
    3ad0:	00098513          	mv	a0,s3
    3ad4:	00090593          	mv	a1,s2
    3ad8:	6b9010ef          	jal	5990 <__muldf3>
    3adc:	00050613          	mv	a2,a0
    3ae0:	00058693          	mv	a3,a1
    3ae4:	00098513          	mv	a0,s3
    3ae8:	00090593          	mv	a1,s2
    3aec:	6a5010ef          	jal	5990 <__muldf3>
    3af0:	0185c7b3          	xor	a5,a1,s8
    3af4:	00078593          	mv	a1,a5
    3af8:	000067b7          	lui	a5,0x6
    3afc:	6d87a603          	lw	a2,1752(a5) # 66d8 <MAP_WIDTH+0x54>
    3b00:	6dc7a683          	lw	a3,1756(a5)
    3b04:	155010ef          	jal	5458 <__divdf3>
    3b08:	000b0613          	mv	a2,s6
    3b0c:	000b8693          	mv	a3,s7
    3b10:	638010ef          	jal	5148 <__adddf3>
    3b14:	00058793          	mv	a5,a1
    3b18:	000c8463          	beqz	s9,3b20 <move+0xddc>
    3b1c:	00bc47b3          	xor	a5,s8,a1
    3b20:	00006b37          	lui	s6,0x6
    3b24:	700b2603          	lw	a2,1792(s6) # 6700 <MAP_WIDTH+0x7c>
    3b28:	704b2683          	lw	a3,1796(s6)
    3b2c:	00078593          	mv	a1,a5
    3b30:	661010ef          	jal	5990 <__muldf3>
    3b34:	6b04a603          	lw	a2,1712(s1)
    3b38:	6b44a683          	lw	a3,1716(s1)
    3b3c:	00a12223          	sw	a0,4(sp)
    3b40:	00b12423          	sw	a1,8(sp)
    3b44:	000a8513          	mv	a0,s5
    3b48:	000a0593          	mv	a1,s4
    3b4c:	515010ef          	jal	5860 <__gtdf2>
    3b50:	30a04863          	bgtz	a0,3e60 <move+0x111c>
    3b54:	000067b7          	lui	a5,0x6
    3b58:	6b87a603          	lw	a2,1720(a5) # 66b8 <MAP_WIDTH+0x34>
    3b5c:	6bc7a683          	lw	a3,1724(a5)
    3b60:	000a8513          	mv	a0,s5
    3b64:	000a0593          	mv	a1,s4
    3b68:	5c1010ef          	jal	5928 <__ltdf2>
    3b6c:	40055863          	bgez	a0,3f7c <move+0x1238>
    3b70:	000067b7          	lui	a5,0x6
    3b74:	6c07a603          	lw	a2,1728(a5) # 66c0 <MAP_WIDTH+0x3c>
    3b78:	6c47a683          	lw	a3,1732(a5)
    3b7c:	000a8513          	mv	a0,s5
    3b80:	000a0593          	mv	a1,s4
    3b84:	5c4010ef          	jal	5148 <__adddf3>
    3b88:	00050b93          	mv	s7,a0
    3b8c:	00058493          	mv	s1,a1
    3b90:	000b8613          	mv	a2,s7
    3b94:	00048693          	mv	a3,s1
    3b98:	000b8513          	mv	a0,s7
    3b9c:	00048593          	mv	a1,s1
    3ba0:	5f1010ef          	jal	5990 <__muldf3>
    3ba4:	000067b7          	lui	a5,0x6
    3ba8:	6e07a603          	lw	a2,1760(a5) # 66e0 <MAP_WIDTH+0x5c>
    3bac:	6e47a683          	lw	a3,1764(a5)
    3bb0:	80000c37          	lui	s8,0x80000
    3bb4:	00058993          	mv	s3,a1
    3bb8:	00bc45b3          	xor	a1,s8,a1
    3bbc:	00050913          	mv	s2,a0
    3bc0:	5d1010ef          	jal	5990 <__muldf3>
    3bc4:	000067b7          	lui	a5,0x6
    3bc8:	6a87a603          	lw	a2,1704(a5) # 66a8 <MAP_WIDTH+0x24>
    3bcc:	6ac7a683          	lw	a3,1708(a5)
    3bd0:	578010ef          	jal	5148 <__adddf3>
    3bd4:	00050a13          	mv	s4,a0
    3bd8:	00058a93          	mv	s5,a1
    3bdc:	00090513          	mv	a0,s2
    3be0:	00098593          	mv	a1,s3
    3be4:	000b8613          	mv	a2,s7
    3be8:	00048693          	mv	a3,s1
    3bec:	5a5010ef          	jal	5990 <__muldf3>
    3bf0:	000b8613          	mv	a2,s7
    3bf4:	00048693          	mv	a3,s1
    3bf8:	599010ef          	jal	5990 <__muldf3>
    3bfc:	000067b7          	lui	a5,0x6
    3c00:	6e87a603          	lw	a2,1768(a5) # 66e8 <MAP_WIDTH+0x64>
    3c04:	6ec7a683          	lw	a3,1772(a5)
    3c08:	00050913          	mv	s2,a0
    3c0c:	00058993          	mv	s3,a1
    3c10:	049010ef          	jal	5458 <__divdf3>
    3c14:	000a0613          	mv	a2,s4
    3c18:	000a8693          	mv	a3,s5
    3c1c:	52c010ef          	jal	5148 <__adddf3>
    3c20:	00050a13          	mv	s4,a0
    3c24:	00058a93          	mv	s5,a1
    3c28:	000b8613          	mv	a2,s7
    3c2c:	00048693          	mv	a3,s1
    3c30:	00090513          	mv	a0,s2
    3c34:	00098593          	mv	a1,s3
    3c38:	559010ef          	jal	5990 <__muldf3>
    3c3c:	000b8613          	mv	a2,s7
    3c40:	00048693          	mv	a3,s1
    3c44:	54d010ef          	jal	5990 <__muldf3>
    3c48:	0185c7b3          	xor	a5,a1,s8
    3c4c:	00078593          	mv	a1,a5
    3c50:	000067b7          	lui	a5,0x6
    3c54:	6f07a603          	lw	a2,1776(a5) # 66f0 <MAP_WIDTH+0x6c>
    3c58:	6f47a683          	lw	a3,1780(a5)
    3c5c:	7fc010ef          	jal	5458 <__divdf3>
    3c60:	000a0613          	mv	a2,s4
    3c64:	000a8693          	mv	a3,s5
    3c68:	4e0010ef          	jal	5148 <__adddf3>
    3c6c:	00050713          	mv	a4,a0
    3c70:	00bc47b3          	xor	a5,s8,a1
    3c74:	700b2603          	lw	a2,1792(s6)
    3c78:	704b2683          	lw	a3,1796(s6)
    3c7c:	00070513          	mv	a0,a4
    3c80:	00078593          	mv	a1,a5
    3c84:	50d010ef          	jal	5990 <__muldf3>
    3c88:	00050b93          	mv	s7,a0
    3c8c:	00058c13          	mv	s8,a1
    3c90:	910ff06f          	j	2da0 <move+0x5c>
    3c94:	00c12703          	lw	a4,12(sp)
    3c98:	002d9793          	slli	a5,s11,0x2
    3c9c:	00f707b3          	add	a5,a4,a5
    3ca0:	5087a703          	lw	a4,1288(a5)
    3ca4:	00100793          	li	a5,1
    3ca8:	00f70463          	beq	a4,a5,3cb0 <move+0xf6c>
    3cac:	a1cff06f          	j	2ec8 <move+0x184>
    3cb0:	00006537          	lui	a0,0x6
    3cb4:	64c50513          	addi	a0,a0,1612 # 664c <__global_pointer+0x2b0>
    3cb8:	cdcfc0ef          	jal	194 <print>
    3cbc:	00006437          	lui	s0,0x6
    3cc0:	29042503          	lw	a0,656(s0) # 6290 <active_map>
    3cc4:	00150513          	addi	a0,a0,1
    3cc8:	d04fc0ef          	jal	1cc <print_dec>
    3ccc:	00006537          	lui	a0,0x6
    3cd0:	65450513          	addi	a0,a0,1620 # 6654 <__global_pointer+0x2b8>
    3cd4:	cc0fc0ef          	jal	194 <print>
    3cd8:	29042503          	lw	a0,656(s0)
    3cdc:	00150513          	addi	a0,a0,1
    3ce0:	804fd0ef          	jal	ce4 <game_init>
    3ce4:	000067b7          	lui	a5,0x6
    3ce8:	2a87a603          	lw	a2,680(a5) # 62a8 <player_x>
    3cec:	2ac7a683          	lw	a3,684(a5)
    3cf0:	00412503          	lw	a0,4(sp)
    3cf4:	00812583          	lw	a1,8(sp)
    3cf8:	450010ef          	jal	5148 <__adddf3>
    3cfc:	000067b7          	lui	a5,0x6
    3d00:	2a07a603          	lw	a2,672(a5) # 62a0 <player_y>
    3d04:	2a47a683          	lw	a3,676(a5)
    3d08:	00050913          	mv	s2,a0
    3d0c:	00058493          	mv	s1,a1
    3d10:	000b8513          	mv	a0,s7
    3d14:	000c0593          	mv	a1,s8
    3d18:	430010ef          	jal	5148 <__adddf3>
    3d1c:	00050a93          	mv	s5,a0
    3d20:	00058a13          	mv	s4,a1
    3d24:	9a4ff06f          	j	2ec8 <move+0x184>
    3d28:	000067b7          	lui	a5,0x6
    3d2c:	6c07a603          	lw	a2,1728(a5) # 66c0 <MAP_WIDTH+0x3c>
    3d30:	6c47a683          	lw	a3,1732(a5)
    3d34:	000a8513          	mv	a0,s5
    3d38:	000a0593          	mv	a1,s4
    3d3c:	404010ef          	jal	5140 <__subdf3>
    3d40:	00050993          	mv	s3,a0
    3d44:	00058913          	mv	s2,a1
    3d48:	00100c93          	li	s9,1
    3d4c:	b74ff06f          	j	30c0 <move+0x37c>
    3d50:	000067b7          	lui	a5,0x6
    3d54:	6c07a603          	lw	a2,1728(a5) # 66c0 <MAP_WIDTH+0x3c>
    3d58:	6c47a683          	lw	a3,1732(a5)
    3d5c:	000a8513          	mv	a0,s5
    3d60:	000a0593          	mv	a1,s4
    3d64:	3dc010ef          	jal	5140 <__subdf3>
    3d68:	00050993          	mv	s3,a0
    3d6c:	00058913          	mv	s2,a1
    3d70:	00100c93          	li	s9,1
    3d74:	c89ff06f          	j	39fc <move+0xcb8>
    3d78:	000067b7          	lui	a5,0x6
    3d7c:	6c07a603          	lw	a2,1728(a5) # 66c0 <MAP_WIDTH+0x3c>
    3d80:	6c47a683          	lw	a3,1732(a5)
    3d84:	000a8513          	mv	a0,s5
    3d88:	000a0593          	mv	a1,s4
    3d8c:	3b4010ef          	jal	5140 <__subdf3>
    3d90:	00050993          	mv	s3,a0
    3d94:	00058913          	mv	s2,a1
    3d98:	00100c93          	li	s9,1
    3d9c:	97dff06f          	j	3718 <move+0x9d4>
    3da0:	000067b7          	lui	a5,0x6
    3da4:	6c07a603          	lw	a2,1728(a5) # 66c0 <MAP_WIDTH+0x3c>
    3da8:	6c47a683          	lw	a3,1732(a5)
    3dac:	000a8513          	mv	a0,s5
    3db0:	000a0593          	mv	a1,s4
    3db4:	38c010ef          	jal	5140 <__subdf3>
    3db8:	00050993          	mv	s3,a0
    3dbc:	00058913          	mv	s2,a1
    3dc0:	00100c93          	li	s9,1
    3dc4:	decff06f          	j	33b0 <move+0x66c>
    3dc8:	000067b7          	lui	a5,0x6
    3dcc:	7407a603          	lw	a2,1856(a5) # 6740 <MAP_WIDTH+0xbc>
    3dd0:	7447a683          	lw	a3,1860(a5)
    3dd4:	00048513          	mv	a0,s1
    3dd8:	00040593          	mv	a1,s0
    3ddc:	364010ef          	jal	5140 <__subdf3>
    3de0:	00050493          	mv	s1,a0
    3de4:	00058413          	mv	s0,a1
    3de8:	28992c23          	sw	s1,664(s2)
    3dec:	28892e23          	sw	s0,668(s2)
    3df0:	fd1fe06f          	j	2dc0 <move+0x7c>
    3df4:	000067b7          	lui	a5,0x6
    3df8:	6c07a603          	lw	a2,1728(a5) # 66c0 <MAP_WIDTH+0x3c>
    3dfc:	6c47a683          	lw	a3,1732(a5)
    3e00:	000a8513          	mv	a0,s5
    3e04:	000a0593          	mv	a1,s4
    3e08:	338010ef          	jal	5140 <__subdf3>
    3e0c:	00050c93          	mv	s9,a0
    3e10:	00058b13          	mv	s6,a1
    3e14:	c3cff06f          	j	3250 <move+0x50c>
    3e18:	000067b7          	lui	a5,0x6
    3e1c:	6c07a603          	lw	a2,1728(a5) # 66c0 <MAP_WIDTH+0x3c>
    3e20:	6c47a683          	lw	a3,1732(a5)
    3e24:	000a8513          	mv	a0,s5
    3e28:	000a0593          	mv	a1,s4
    3e2c:	314010ef          	jal	5140 <__subdf3>
    3e30:	00050b93          	mv	s7,a0
    3e34:	00058493          	mv	s1,a1
    3e38:	f0cff06f          	j	3544 <move+0x800>
    3e3c:	000067b7          	lui	a5,0x6
    3e40:	6c07a603          	lw	a2,1728(a5) # 66c0 <MAP_WIDTH+0x3c>
    3e44:	6c47a683          	lw	a3,1732(a5)
    3e48:	000a8513          	mv	a0,s5
    3e4c:	000a0593          	mv	a1,s4
    3e50:	2f0010ef          	jal	5140 <__subdf3>
    3e54:	00050c93          	mv	s9,a0
    3e58:	00058b13          	mv	s6,a1
    3e5c:	a49ff06f          	j	38a4 <move+0xb60>
    3e60:	000067b7          	lui	a5,0x6
    3e64:	6c07a603          	lw	a2,1728(a5) # 66c0 <MAP_WIDTH+0x3c>
    3e68:	6c47a683          	lw	a3,1732(a5)
    3e6c:	000a8513          	mv	a0,s5
    3e70:	000a0593          	mv	a1,s4
    3e74:	2cc010ef          	jal	5140 <__subdf3>
    3e78:	00050b93          	mv	s7,a0
    3e7c:	00058493          	mv	s1,a1
    3e80:	d11ff06f          	j	3b90 <move+0xe4c>
    3e84:	000a8613          	mv	a2,s5
    3e88:	000a0693          	mv	a3,s4
    3e8c:	000a8513          	mv	a0,s5
    3e90:	000a0593          	mv	a1,s4
    3e94:	2fd010ef          	jal	5990 <__muldf3>
    3e98:	000067b7          	lui	a5,0x6
    3e9c:	6e07a603          	lw	a2,1760(a5) # 66e0 <MAP_WIDTH+0x5c>
    3ea0:	6e47a683          	lw	a3,1764(a5)
    3ea4:	80000cb7          	lui	s9,0x80000
    3ea8:	00058b13          	mv	s6,a1
    3eac:	00bcc5b3          	xor	a1,s9,a1
    3eb0:	00050493          	mv	s1,a0
    3eb4:	2dd010ef          	jal	5990 <__muldf3>
    3eb8:	000067b7          	lui	a5,0x6
    3ebc:	6a87a603          	lw	a2,1704(a5) # 66a8 <MAP_WIDTH+0x24>
    3ec0:	6ac7a683          	lw	a3,1708(a5)
    3ec4:	284010ef          	jal	5148 <__adddf3>
    3ec8:	00050913          	mv	s2,a0
    3ecc:	00058993          	mv	s3,a1
    3ed0:	00048613          	mv	a2,s1
    3ed4:	000b0693          	mv	a3,s6
    3ed8:	000a8513          	mv	a0,s5
    3edc:	000a0593          	mv	a1,s4
    3ee0:	2b1010ef          	jal	5990 <__muldf3>
    3ee4:	00050613          	mv	a2,a0
    3ee8:	00058693          	mv	a3,a1
    3eec:	000a8513          	mv	a0,s5
    3ef0:	000a0593          	mv	a1,s4
    3ef4:	29d010ef          	jal	5990 <__muldf3>
    3ef8:	000067b7          	lui	a5,0x6
    3efc:	6e87a603          	lw	a2,1768(a5) # 66e8 <MAP_WIDTH+0x64>
    3f00:	6ec7a683          	lw	a3,1772(a5)
    3f04:	00050d13          	mv	s10,a0
    3f08:	00058d93          	mv	s11,a1
    3f0c:	54c010ef          	jal	5458 <__divdf3>
    3f10:	00090613          	mv	a2,s2
    3f14:	00098693          	mv	a3,s3
    3f18:	230010ef          	jal	5148 <__adddf3>
    3f1c:	00050913          	mv	s2,a0
    3f20:	00058993          	mv	s3,a1
    3f24:	000d0613          	mv	a2,s10
    3f28:	000d8693          	mv	a3,s11
    3f2c:	000a8513          	mv	a0,s5
    3f30:	000a0593          	mv	a1,s4
    3f34:	25d010ef          	jal	5990 <__muldf3>
    3f38:	00050613          	mv	a2,a0
    3f3c:	00058693          	mv	a3,a1
    3f40:	000a8513          	mv	a0,s5
    3f44:	000a0593          	mv	a1,s4
    3f48:	249010ef          	jal	5990 <__muldf3>
    3f4c:	0195c7b3          	xor	a5,a1,s9
    3f50:	00078593          	mv	a1,a5
    3f54:	000067b7          	lui	a5,0x6
    3f58:	6f07a603          	lw	a2,1776(a5) # 66f0 <MAP_WIDTH+0x6c>
    3f5c:	6f47a683          	lw	a3,1780(a5)
    3f60:	4f8010ef          	jal	5458 <__divdf3>
    3f64:	00090613          	mv	a2,s2
    3f68:	00098693          	mv	a3,s3
    3f6c:	1dc010ef          	jal	5148 <__adddf3>
    3f70:	00050713          	mv	a4,a0
    3f74:	00058793          	mv	a5,a1
    3f78:	a11ff06f          	j	3988 <move+0xc44>
    3f7c:	000a8613          	mv	a2,s5
    3f80:	000a0693          	mv	a3,s4
    3f84:	000a8513          	mv	a0,s5
    3f88:	000a0593          	mv	a1,s4
    3f8c:	205010ef          	jal	5990 <__muldf3>
    3f90:	000067b7          	lui	a5,0x6
    3f94:	6e07a603          	lw	a2,1760(a5) # 66e0 <MAP_WIDTH+0x5c>
    3f98:	6e47a683          	lw	a3,1764(a5)
    3f9c:	80000db7          	lui	s11,0x80000
    3fa0:	00058b93          	mv	s7,a1
    3fa4:	00bdc5b3          	xor	a1,s11,a1
    3fa8:	00050493          	mv	s1,a0
    3fac:	1e5010ef          	jal	5990 <__muldf3>
    3fb0:	000067b7          	lui	a5,0x6
    3fb4:	6a87a603          	lw	a2,1704(a5) # 66a8 <MAP_WIDTH+0x24>
    3fb8:	6ac7a683          	lw	a3,1708(a5)
    3fbc:	18c010ef          	jal	5148 <__adddf3>
    3fc0:	00050913          	mv	s2,a0
    3fc4:	00058993          	mv	s3,a1
    3fc8:	000b8693          	mv	a3,s7
    3fcc:	00048613          	mv	a2,s1
    3fd0:	000a8513          	mv	a0,s5
    3fd4:	000a0593          	mv	a1,s4
    3fd8:	1b9010ef          	jal	5990 <__muldf3>
    3fdc:	00050613          	mv	a2,a0
    3fe0:	00058693          	mv	a3,a1
    3fe4:	000a8513          	mv	a0,s5
    3fe8:	000a0593          	mv	a1,s4
    3fec:	1a5010ef          	jal	5990 <__muldf3>
    3ff0:	000067b7          	lui	a5,0x6
    3ff4:	6e87a603          	lw	a2,1768(a5) # 66e8 <MAP_WIDTH+0x64>
    3ff8:	6ec7a683          	lw	a3,1772(a5)
    3ffc:	00050b93          	mv	s7,a0
    4000:	00058c13          	mv	s8,a1
    4004:	454010ef          	jal	5458 <__divdf3>
    4008:	00090613          	mv	a2,s2
    400c:	00098693          	mv	a3,s3
    4010:	138010ef          	jal	5148 <__adddf3>
    4014:	00050913          	mv	s2,a0
    4018:	00058993          	mv	s3,a1
    401c:	000b8613          	mv	a2,s7
    4020:	000c0693          	mv	a3,s8
    4024:	000a8513          	mv	a0,s5
    4028:	000a0593          	mv	a1,s4
    402c:	165010ef          	jal	5990 <__muldf3>
    4030:	00050613          	mv	a2,a0
    4034:	00058693          	mv	a3,a1
    4038:	000a8513          	mv	a0,s5
    403c:	000a0593          	mv	a1,s4
    4040:	151010ef          	jal	5990 <__muldf3>
    4044:	01b5c7b3          	xor	a5,a1,s11
    4048:	00078593          	mv	a1,a5
    404c:	000067b7          	lui	a5,0x6
    4050:	6f07a603          	lw	a2,1776(a5) # 66f0 <MAP_WIDTH+0x6c>
    4054:	6f47a683          	lw	a3,1780(a5)
    4058:	400010ef          	jal	5458 <__divdf3>
    405c:	00090613          	mv	a2,s2
    4060:	00098693          	mv	a3,s3
    4064:	0e4010ef          	jal	5148 <__adddf3>
    4068:	00050713          	mv	a4,a0
    406c:	00058793          	mv	a5,a1
    4070:	c05ff06f          	j	3c74 <move+0xf30>
    4074:	000067b7          	lui	a5,0x6
    4078:	6c07a603          	lw	a2,1728(a5) # 66c0 <MAP_WIDTH+0x3c>
    407c:	6c47a683          	lw	a3,1732(a5)
    4080:	000a8513          	mv	a0,s5
    4084:	000a0593          	mv	a1,s4
    4088:	0c0010ef          	jal	5148 <__adddf3>
    408c:	00050993          	mv	s3,a0
    4090:	00058913          	mv	s2,a1
    4094:	00100c93          	li	s9,1
    4098:	e80ff06f          	j	3718 <move+0x9d4>
    409c:	000067b7          	lui	a5,0x6
    40a0:	6c07a603          	lw	a2,1728(a5) # 66c0 <MAP_WIDTH+0x3c>
    40a4:	6c47a683          	lw	a3,1732(a5)
    40a8:	000a8513          	mv	a0,s5
    40ac:	000a0593          	mv	a1,s4
    40b0:	098010ef          	jal	5148 <__adddf3>
    40b4:	00050993          	mv	s3,a0
    40b8:	00058913          	mv	s2,a1
    40bc:	00100c93          	li	s9,1
    40c0:	93dff06f          	j	39fc <move+0xcb8>
    40c4:	000a8613          	mv	a2,s5
    40c8:	000a0693          	mv	a3,s4
    40cc:	000a8513          	mv	a0,s5
    40d0:	000a0593          	mv	a1,s4
    40d4:	0bd010ef          	jal	5990 <__muldf3>
    40d8:	000067b7          	lui	a5,0x6
    40dc:	6e07a603          	lw	a2,1760(a5) # 66e0 <MAP_WIDTH+0x5c>
    40e0:	6e47a683          	lw	a3,1764(a5)
    40e4:	80000cb7          	lui	s9,0x80000
    40e8:	00058b13          	mv	s6,a1
    40ec:	00bcc5b3          	xor	a1,s9,a1
    40f0:	00050493          	mv	s1,a0
    40f4:	09d010ef          	jal	5990 <__muldf3>
    40f8:	000067b7          	lui	a5,0x6
    40fc:	6a87a603          	lw	a2,1704(a5) # 66a8 <MAP_WIDTH+0x24>
    4100:	6ac7a683          	lw	a3,1708(a5)
    4104:	044010ef          	jal	5148 <__adddf3>
    4108:	00050913          	mv	s2,a0
    410c:	00058993          	mv	s3,a1
    4110:	00048613          	mv	a2,s1
    4114:	000b0693          	mv	a3,s6
    4118:	000a8513          	mv	a0,s5
    411c:	000a0593          	mv	a1,s4
    4120:	071010ef          	jal	5990 <__muldf3>
    4124:	00050613          	mv	a2,a0
    4128:	00058693          	mv	a3,a1
    412c:	000a8513          	mv	a0,s5
    4130:	000a0593          	mv	a1,s4
    4134:	05d010ef          	jal	5990 <__muldf3>
    4138:	000067b7          	lui	a5,0x6
    413c:	6e87a603          	lw	a2,1768(a5) # 66e8 <MAP_WIDTH+0x64>
    4140:	6ec7a683          	lw	a3,1772(a5)
    4144:	00050d13          	mv	s10,a0
    4148:	00058d93          	mv	s11,a1
    414c:	30c010ef          	jal	5458 <__divdf3>
    4150:	00090613          	mv	a2,s2
    4154:	00098693          	mv	a3,s3
    4158:	7f1000ef          	jal	5148 <__adddf3>
    415c:	00050913          	mv	s2,a0
    4160:	00058993          	mv	s3,a1
    4164:	000d0613          	mv	a2,s10
    4168:	000d8693          	mv	a3,s11
    416c:	000a8513          	mv	a0,s5
    4170:	000a0593          	mv	a1,s4
    4174:	01d010ef          	jal	5990 <__muldf3>
    4178:	00050613          	mv	a2,a0
    417c:	00058693          	mv	a3,a1
    4180:	000a8513          	mv	a0,s5
    4184:	000a0593          	mv	a1,s4
    4188:	009010ef          	jal	5990 <__muldf3>
    418c:	0195c7b3          	xor	a5,a1,s9
    4190:	00078593          	mv	a1,a5
    4194:	000067b7          	lui	a5,0x6
    4198:	6f07a603          	lw	a2,1776(a5) # 66f0 <MAP_WIDTH+0x6c>
    419c:	6f47a683          	lw	a3,1780(a5)
    41a0:	2b8010ef          	jal	5458 <__divdf3>
    41a4:	00090613          	mv	a2,s2
    41a8:	00098693          	mv	a3,s3
    41ac:	79d000ef          	jal	5148 <__adddf3>
    41b0:	00050713          	mv	a4,a0
    41b4:	00058793          	mv	a5,a1
    41b8:	97cff06f          	j	3334 <move+0x5f0>
    41bc:	000a8613          	mv	a2,s5
    41c0:	000a0693          	mv	a3,s4
    41c4:	000a8513          	mv	a0,s5
    41c8:	000a0593          	mv	a1,s4
    41cc:	7c4010ef          	jal	5990 <__muldf3>
    41d0:	000067b7          	lui	a5,0x6
    41d4:	6e07a603          	lw	a2,1760(a5) # 66e0 <MAP_WIDTH+0x5c>
    41d8:	6e47a683          	lw	a3,1764(a5)
    41dc:	80000db7          	lui	s11,0x80000
    41e0:	00058b93          	mv	s7,a1
    41e4:	00bdc5b3          	xor	a1,s11,a1
    41e8:	00050493          	mv	s1,a0
    41ec:	7a4010ef          	jal	5990 <__muldf3>
    41f0:	000067b7          	lui	a5,0x6
    41f4:	6a87a603          	lw	a2,1704(a5) # 66a8 <MAP_WIDTH+0x24>
    41f8:	6ac7a683          	lw	a3,1708(a5)
    41fc:	74d000ef          	jal	5148 <__adddf3>
    4200:	00050913          	mv	s2,a0
    4204:	00058993          	mv	s3,a1
    4208:	000b8693          	mv	a3,s7
    420c:	00048613          	mv	a2,s1
    4210:	000a8513          	mv	a0,s5
    4214:	000a0593          	mv	a1,s4
    4218:	778010ef          	jal	5990 <__muldf3>
    421c:	00050613          	mv	a2,a0
    4220:	00058693          	mv	a3,a1
    4224:	000a8513          	mv	a0,s5
    4228:	000a0593          	mv	a1,s4
    422c:	764010ef          	jal	5990 <__muldf3>
    4230:	000067b7          	lui	a5,0x6
    4234:	6e87a603          	lw	a2,1768(a5) # 66e8 <MAP_WIDTH+0x64>
    4238:	6ec7a683          	lw	a3,1772(a5)
    423c:	00050b93          	mv	s7,a0
    4240:	00058c13          	mv	s8,a1
    4244:	214010ef          	jal	5458 <__divdf3>
    4248:	00090613          	mv	a2,s2
    424c:	00098693          	mv	a3,s3
    4250:	6f9000ef          	jal	5148 <__adddf3>
    4254:	00050913          	mv	s2,a0
    4258:	00058993          	mv	s3,a1
    425c:	000b8613          	mv	a2,s7
    4260:	000c0693          	mv	a3,s8
    4264:	000a8513          	mv	a0,s5
    4268:	000a0593          	mv	a1,s4
    426c:	724010ef          	jal	5990 <__muldf3>
    4270:	00050613          	mv	a2,a0
    4274:	00058693          	mv	a3,a1
    4278:	000a8513          	mv	a0,s5
    427c:	000a0593          	mv	a1,s4
    4280:	710010ef          	jal	5990 <__muldf3>
    4284:	01b5c7b3          	xor	a5,a1,s11
    4288:	00078593          	mv	a1,a5
    428c:	000067b7          	lui	a5,0x6
    4290:	6f07a603          	lw	a2,1776(a5) # 66f0 <MAP_WIDTH+0x6c>
    4294:	6f47a683          	lw	a3,1780(a5)
    4298:	1c0010ef          	jal	5458 <__divdf3>
    429c:	00090613          	mv	a2,s2
    42a0:	00098693          	mv	a3,s3
    42a4:	6a5000ef          	jal	5148 <__adddf3>
    42a8:	00050713          	mv	a4,a0
    42ac:	00058793          	mv	a5,a1
    42b0:	b78ff06f          	j	3628 <move+0x8e4>
    42b4:	000067b7          	lui	a5,0x6
    42b8:	6c07a603          	lw	a2,1728(a5) # 66c0 <MAP_WIDTH+0x3c>
    42bc:	6c47a683          	lw	a3,1732(a5)
    42c0:	000a8513          	mv	a0,s5
    42c4:	000a0593          	mv	a1,s4
    42c8:	681000ef          	jal	5148 <__adddf3>
    42cc:	00050993          	mv	s3,a0
    42d0:	00058913          	mv	s2,a1
    42d4:	00100c93          	li	s9,1
    42d8:	8d8ff06f          	j	33b0 <move+0x66c>
    42dc:	000067b7          	lui	a5,0x6
    42e0:	6c07a603          	lw	a2,1728(a5) # 66c0 <MAP_WIDTH+0x3c>
    42e4:	6c47a683          	lw	a3,1732(a5)
    42e8:	000a8513          	mv	a0,s5
    42ec:	000a0593          	mv	a1,s4
    42f0:	659000ef          	jal	5148 <__adddf3>
    42f4:	00050993          	mv	s3,a0
    42f8:	00058913          	mv	s2,a1
    42fc:	00100c93          	li	s9,1
    4300:	dc1fe06f          	j	30c0 <move+0x37c>

00004304 <get_view>:
    4304:	fd010113          	addi	sp,sp,-48
    4308:	02812423          	sw	s0,40(sp)
    430c:	02912223          	sw	s1,36(sp)
    4310:	03212023          	sw	s2,32(sp)
    4314:	01312e23          	sw	s3,28(sp)
    4318:	02112623          	sw	ra,44(sp)
    431c:	00060413          	mv	s0,a2
    4320:	00068493          	mv	s1,a3
    4324:	61d000ef          	jal	5140 <__subdf3>
    4328:	00000613          	li	a2,0
    432c:	00000693          	li	a3,0
    4330:	00050913          	mv	s2,a0
    4334:	00058993          	mv	s3,a1
    4338:	528010ef          	jal	5860 <__gtdf2>
    433c:	30a05663          	blez	a0,4648 <get_view+0x344>
    4340:	00090613          	mv	a2,s2
    4344:	00098693          	mv	a3,s3
    4348:	00040513          	mv	a0,s0
    434c:	00048593          	mv	a1,s1
    4350:	01412c23          	sw	s4,24(sp)
    4354:	01512a23          	sw	s5,20(sp)
    4358:	01612823          	sw	s6,16(sp)
    435c:	01712623          	sw	s7,12(sp)
    4360:	01812423          	sw	s8,8(sp)
    4364:	0f4010ef          	jal	5458 <__divdf3>
    4368:	000067b7          	lui	a5,0x6
    436c:	6a87a603          	lw	a2,1704(a5) # 66a8 <MAP_WIDTH+0x24>
    4370:	6ac7a683          	lw	a3,1708(a5)
    4374:	00050413          	mv	s0,a0
    4378:	00058493          	mv	s1,a1
    437c:	544010ef          	jal	58c0 <__ledf2>
    4380:	00a05a63          	blez	a0,4394 <get_view+0x90>
    4384:	00006737          	lui	a4,0x6
    4388:	6b072783          	lw	a5,1712(a4) # 66b0 <MAP_WIDTH+0x2c>
    438c:	6b472583          	lw	a1,1716(a4)
    4390:	2840006f          	j	4614 <get_view+0x310>
    4394:	00000613          	li	a2,0
    4398:	00000693          	li	a3,0
    439c:	00040513          	mv	a0,s0
    43a0:	00048593          	mv	a1,s1
    43a4:	5a5000ef          	jal	5148 <__adddf3>
    43a8:	00050a13          	mv	s4,a0
    43ac:	00058a93          	mv	s5,a1
    43b0:	00040613          	mv	a2,s0
    43b4:	00048693          	mv	a3,s1
    43b8:	00040513          	mv	a0,s0
    43bc:	00048593          	mv	a1,s1
    43c0:	5d0010ef          	jal	5990 <__muldf3>
    43c4:	00050613          	mv	a2,a0
    43c8:	00058693          	mv	a3,a1
    43cc:	00040513          	mv	a0,s0
    43d0:	00048593          	mv	a1,s1
    43d4:	5bc010ef          	jal	5990 <__muldf3>
    43d8:	000067b7          	lui	a5,0x6
    43dc:	6f87a603          	lw	a2,1784(a5) # 66f8 <MAP_WIDTH+0x74>
    43e0:	6fc7a683          	lw	a3,1788(a5)
    43e4:	800009b7          	lui	s3,0x80000
    43e8:	00058b13          	mv	s6,a1
    43ec:	00b9c5b3          	xor	a1,s3,a1
    43f0:	00050913          	mv	s2,a0
    43f4:	064010ef          	jal	5458 <__divdf3>
    43f8:	000a0613          	mv	a2,s4
    43fc:	000a8693          	mv	a3,s5
    4400:	549000ef          	jal	5148 <__adddf3>
    4404:	00050b93          	mv	s7,a0
    4408:	00090613          	mv	a2,s2
    440c:	000b0693          	mv	a3,s6
    4410:	00058c13          	mv	s8,a1
    4414:	00040513          	mv	a0,s0
    4418:	00048593          	mv	a1,s1
    441c:	574010ef          	jal	5990 <__muldf3>
    4420:	00050613          	mv	a2,a0
    4424:	00058693          	mv	a3,a1
    4428:	00040513          	mv	a0,s0
    442c:	00048593          	mv	a1,s1
    4430:	560010ef          	jal	5990 <__muldf3>
    4434:	000067b7          	lui	a5,0x6
    4438:	7007a603          	lw	a2,1792(a5) # 6700 <MAP_WIDTH+0x7c>
    443c:	7047a683          	lw	a3,1796(a5)
    4440:	00050a13          	mv	s4,a0
    4444:	00058a93          	mv	s5,a1
    4448:	010010ef          	jal	5458 <__divdf3>
    444c:	000b8613          	mv	a2,s7
    4450:	000c0693          	mv	a3,s8
    4454:	4f5000ef          	jal	5148 <__adddf3>
    4458:	00050b13          	mv	s6,a0
    445c:	00058b93          	mv	s7,a1
    4460:	000a0613          	mv	a2,s4
    4464:	000a8693          	mv	a3,s5
    4468:	00040513          	mv	a0,s0
    446c:	00048593          	mv	a1,s1
    4470:	520010ef          	jal	5990 <__muldf3>
    4474:	00050613          	mv	a2,a0
    4478:	00058693          	mv	a3,a1
    447c:	00040513          	mv	a0,s0
    4480:	00048593          	mv	a1,s1
    4484:	50c010ef          	jal	5990 <__muldf3>
    4488:	000067b7          	lui	a5,0x6
    448c:	7087a603          	lw	a2,1800(a5) # 6708 <MAP_WIDTH+0x84>
    4490:	70c7a683          	lw	a3,1804(a5)
    4494:	00058a13          	mv	s4,a1
    4498:	00b9c5b3          	xor	a1,s3,a1
    449c:	00050913          	mv	s2,a0
    44a0:	7b9000ef          	jal	5458 <__divdf3>
    44a4:	000b0613          	mv	a2,s6
    44a8:	000b8693          	mv	a3,s7
    44ac:	49d000ef          	jal	5148 <__adddf3>
    44b0:	00050b13          	mv	s6,a0
    44b4:	00058b93          	mv	s7,a1
    44b8:	00090613          	mv	a2,s2
    44bc:	000a0693          	mv	a3,s4
    44c0:	00040513          	mv	a0,s0
    44c4:	00048593          	mv	a1,s1
    44c8:	4c8010ef          	jal	5990 <__muldf3>
    44cc:	00050613          	mv	a2,a0
    44d0:	00058693          	mv	a3,a1
    44d4:	00040513          	mv	a0,s0
    44d8:	00048593          	mv	a1,s1
    44dc:	4b4010ef          	jal	5990 <__muldf3>
    44e0:	000067b7          	lui	a5,0x6
    44e4:	7107a603          	lw	a2,1808(a5) # 6710 <MAP_WIDTH+0x8c>
    44e8:	7147a683          	lw	a3,1812(a5)
    44ec:	00050a13          	mv	s4,a0
    44f0:	00058a93          	mv	s5,a1
    44f4:	765000ef          	jal	5458 <__divdf3>
    44f8:	000b0613          	mv	a2,s6
    44fc:	000b8693          	mv	a3,s7
    4500:	449000ef          	jal	5148 <__adddf3>
    4504:	00050b13          	mv	s6,a0
    4508:	00058b93          	mv	s7,a1
    450c:	000a0613          	mv	a2,s4
    4510:	000a8693          	mv	a3,s5
    4514:	00040513          	mv	a0,s0
    4518:	00048593          	mv	a1,s1
    451c:	474010ef          	jal	5990 <__muldf3>
    4520:	00050613          	mv	a2,a0
    4524:	00058693          	mv	a3,a1
    4528:	00040513          	mv	a0,s0
    452c:	00048593          	mv	a1,s1
    4530:	460010ef          	jal	5990 <__muldf3>
    4534:	000067b7          	lui	a5,0x6
    4538:	7187a603          	lw	a2,1816(a5) # 6718 <MAP_WIDTH+0x94>
    453c:	71c7a683          	lw	a3,1820(a5)
    4540:	00058a13          	mv	s4,a1
    4544:	00b9c5b3          	xor	a1,s3,a1
    4548:	00050913          	mv	s2,a0
    454c:	70d000ef          	jal	5458 <__divdf3>
    4550:	000b0613          	mv	a2,s6
    4554:	000b8693          	mv	a3,s7
    4558:	3f1000ef          	jal	5148 <__adddf3>
    455c:	00050b13          	mv	s6,a0
    4560:	00058b93          	mv	s7,a1
    4564:	000a0693          	mv	a3,s4
    4568:	00090613          	mv	a2,s2
    456c:	00040513          	mv	a0,s0
    4570:	00048593          	mv	a1,s1
    4574:	41c010ef          	jal	5990 <__muldf3>
    4578:	00050613          	mv	a2,a0
    457c:	00058693          	mv	a3,a1
    4580:	00040513          	mv	a0,s0
    4584:	00048593          	mv	a1,s1
    4588:	408010ef          	jal	5990 <__muldf3>
    458c:	000067b7          	lui	a5,0x6
    4590:	7207a603          	lw	a2,1824(a5) # 6720 <MAP_WIDTH+0x9c>
    4594:	7247a683          	lw	a3,1828(a5)
    4598:	00050a13          	mv	s4,a0
    459c:	00058a93          	mv	s5,a1
    45a0:	6b9000ef          	jal	5458 <__divdf3>
    45a4:	000b0613          	mv	a2,s6
    45a8:	000b8693          	mv	a3,s7
    45ac:	39d000ef          	jal	5148 <__adddf3>
    45b0:	00050b13          	mv	s6,a0
    45b4:	00058b93          	mv	s7,a1
    45b8:	000a0613          	mv	a2,s4
    45bc:	000a8693          	mv	a3,s5
    45c0:	00040513          	mv	a0,s0
    45c4:	00048593          	mv	a1,s1
    45c8:	3c8010ef          	jal	5990 <__muldf3>
    45cc:	00050613          	mv	a2,a0
    45d0:	00058693          	mv	a3,a1
    45d4:	00040513          	mv	a0,s0
    45d8:	00048593          	mv	a1,s1
    45dc:	3b4010ef          	jal	5990 <__muldf3>
    45e0:	0135c7b3          	xor	a5,a1,s3
    45e4:	00078593          	mv	a1,a5
    45e8:	000067b7          	lui	a5,0x6
    45ec:	7287a603          	lw	a2,1832(a5) # 6728 <MAP_WIDTH+0xa4>
    45f0:	72c7a683          	lw	a3,1836(a5)
    45f4:	665000ef          	jal	5458 <__divdf3>
    45f8:	000b0613          	mv	a2,s6
    45fc:	000b8693          	mv	a3,s7
    4600:	349000ef          	jal	5148 <__adddf3>
    4604:	00050613          	mv	a2,a0
    4608:	00058693          	mv	a3,a1
    460c:	33d000ef          	jal	5148 <__adddf3>
    4610:	00050793          	mv	a5,a0
    4614:	02c12083          	lw	ra,44(sp)
    4618:	02812403          	lw	s0,40(sp)
    461c:	01812a03          	lw	s4,24(sp)
    4620:	01412a83          	lw	s5,20(sp)
    4624:	01012b03          	lw	s6,16(sp)
    4628:	00c12b83          	lw	s7,12(sp)
    462c:	00812c03          	lw	s8,8(sp)
    4630:	02412483          	lw	s1,36(sp)
    4634:	02012903          	lw	s2,32(sp)
    4638:	01c12983          	lw	s3,28(sp)
    463c:	00078513          	mv	a0,a5
    4640:	03010113          	addi	sp,sp,48
    4644:	00008067          	ret
    4648:	00006737          	lui	a4,0x6
    464c:	6b072783          	lw	a5,1712(a4) # 66b0 <MAP_WIDTH+0x2c>
    4650:	02c12083          	lw	ra,44(sp)
    4654:	02812403          	lw	s0,40(sp)
    4658:	6b472583          	lw	a1,1716(a4)
    465c:	02412483          	lw	s1,36(sp)
    4660:	02012903          	lw	s2,32(sp)
    4664:	01c12983          	lw	s3,28(sp)
    4668:	00078513          	mv	a0,a5
    466c:	03010113          	addi	sp,sp,48
    4670:	00008067          	ret

00004674 <look2>:
    4674:	000067b7          	lui	a5,0x6
    4678:	a6010113          	addi	sp,sp,-1440
    467c:	ba078793          	addi	a5,a5,-1120 # 5ba0 <colors>
    4680:	00f12a23          	sw	a5,20(sp)
    4684:	00078713          	mv	a4,a5
    4688:	58112e23          	sw	ra,1436(sp)
    468c:	58812c23          	sw	s0,1432(sp)
    4690:	58912a23          	sw	s1,1428(sp)
    4694:	59212823          	sw	s2,1424(sp)
    4698:	59312623          	sw	s3,1420(sp)
    469c:	59412423          	sw	s4,1416(sp)
    46a0:	59512223          	sw	s5,1412(sp)
    46a4:	59612023          	sw	s6,1408(sp)
    46a8:	57712e23          	sw	s7,1404(sp)
    46ac:	57812c23          	sw	s8,1400(sp)
    46b0:	57912a23          	sw	s9,1396(sp)
    46b4:	57a12823          	sw	s10,1392(sp)
    46b8:	57b12623          	sw	s11,1388(sp)
    46bc:	06010793          	addi	a5,sp,96
    46c0:	7d000693          	li	a3,2000
    46c4:	00d7a023          	sw	a3,0(a5)
    46c8:	00072023          	sw	zero,0(a4)
    46cc:	00478793          	addi	a5,a5,4
    46d0:	56010613          	addi	a2,sp,1376
    46d4:	00470713          	addi	a4,a4,4
    46d8:	fef616e3          	bne	a2,a5,46c4 <look2+0x50>
    46dc:	00006337          	lui	t1,0x6
    46e0:	2ac32383          	lw	t2,684(t1) # 62ac <player_x+0x4>
    46e4:	2a832303          	lw	t1,680(t1)
    46e8:	000068b7          	lui	a7,0x6
    46ec:	00006837          	lui	a6,0x6
    46f0:	02612823          	sw	t1,48(sp)
    46f4:	02712a23          	sw	t2,52(sp)
    46f8:	2a08a303          	lw	t1,672(a7) # 62a0 <player_y>
    46fc:	2a48a383          	lw	t2,676(a7)
    4700:	29c82883          	lw	a7,668(a6) # 629c <player_dir+0x4>
    4704:	29882803          	lw	a6,664(a6)
    4708:	00006537          	lui	a0,0x6
    470c:	000065b7          	lui	a1,0x6
    4710:	05012023          	sw	a6,64(sp)
    4714:	05112223          	sw	a7,68(sp)
    4718:	73852803          	lw	a6,1848(a0) # 6738 <MAP_WIDTH+0xb4>
    471c:	73c52883          	lw	a7,1852(a0)
    4720:	7505a503          	lw	a0,1872(a1) # 6750 <MAP_WIDTH+0xcc>
    4724:	7545a583          	lw	a1,1876(a1)
    4728:	00006637          	lui	a2,0x6
    472c:	000066b7          	lui	a3,0x6
    4730:	00b12223          	sw	a1,4(sp)
    4734:	75862583          	lw	a1,1880(a2) # 6758 <MAP_WIDTH+0xd4>
    4738:	75c62603          	lw	a2,1884(a2)
    473c:	00006737          	lui	a4,0x6
    4740:	000067b7          	lui	a5,0x6
    4744:	00c12623          	sw	a2,12(sp)
    4748:	6c86a603          	lw	a2,1736(a3) # 66c8 <MAP_WIDTH+0x44>
    474c:	6cc6a683          	lw	a3,1740(a3)
    4750:	02612c23          	sw	t1,56(sp)
    4754:	02712e23          	sw	t2,60(sp)
    4758:	04d12623          	sw	a3,76(sp)
    475c:	6d072683          	lw	a3,1744(a4) # 66d0 <MAP_WIDTH+0x4c>
    4760:	6d472703          	lw	a4,1748(a4)
    4764:	01012c23          	sw	a6,24(sp)
    4768:	01112e23          	sw	a7,28(sp)
    476c:	00a12023          	sw	a0,0(sp)
    4770:	00b12423          	sw	a1,8(sp)
    4774:	04c12423          	sw	a2,72(sp)
    4778:	04d12823          	sw	a3,80(sp)
    477c:	04e12a23          	sw	a4,84(sp)
    4780:	6dc7a803          	lw	a6,1756(a5) # 66dc <MAP_WIDTH+0x58>
    4784:	6d87a783          	lw	a5,1752(a5)
    4788:	05012e23          	sw	a6,92(sp)
    478c:	04f12c23          	sw	a5,88(sp)
    4790:	01412783          	lw	a5,20(sp)
    4794:	50078b13          	addi	s6,a5,1280
    4798:	0140006f          	j	47ac <look2+0x138>
    479c:	000067b7          	lui	a5,0x6
    47a0:	00cb0b13          	addi	s6,s6,12
    47a4:	28078793          	addi	a5,a5,640 # 6280 <timeoutcount.0>
    47a8:	4f678c63          	beq	a5,s6,4ca0 <look2+0x62c>
    47ac:	008b2d03          	lw	s10,8(s6)
    47b0:	fe0d06e3          	beqz	s10,479c <look2+0x128>
    47b4:	000b2503          	lw	a0,0(s6)
    47b8:	7f5000ef          	jal	57ac <__floatsidf>
    47bc:	00050493          	mv	s1,a0
    47c0:	004b2503          	lw	a0,4(s6)
    47c4:	00058413          	mv	s0,a1
    47c8:	7e5000ef          	jal	57ac <__floatsidf>
    47cc:	00050613          	mv	a2,a0
    47d0:	00058693          	mv	a3,a1
    47d4:	00050913          	mv	s2,a0
    47d8:	00058993          	mv	s3,a1
    47dc:	00048513          	mv	a0,s1
    47e0:	00040593          	mv	a1,s0
    47e4:	adcfd0ef          	jal	1ac0 <get_angle>
    47e8:	000067b7          	lui	a5,0x6
    47ec:	6c07a603          	lw	a2,1728(a5) # 66c0 <MAP_WIDTH+0x3c>
    47f0:	6c47a683          	lw	a3,1732(a5)
    47f4:	00050b93          	mv	s7,a0
    47f8:	00058c13          	mv	s8,a1
    47fc:	064010ef          	jal	5860 <__gtdf2>
    4800:	02a044e3          	bgtz	a0,5028 <look2+0x9b4>
    4804:	000067b7          	lui	a5,0x6
    4808:	7487a603          	lw	a2,1864(a5) # 6748 <MAP_WIDTH+0xc4>
    480c:	74c7a683          	lw	a3,1868(a5)
    4810:	000b8513          	mv	a0,s7
    4814:	000c0593          	mv	a1,s8
    4818:	110010ef          	jal	5928 <__ltdf2>
    481c:	02055263          	bgez	a0,4840 <look2+0x1cc>
    4820:	000067b7          	lui	a5,0x6
    4824:	7407a603          	lw	a2,1856(a5) # 6740 <MAP_WIDTH+0xbc>
    4828:	7447a683          	lw	a3,1860(a5)
    482c:	000b8513          	mv	a0,s7
    4830:	000c0593          	mv	a1,s8
    4834:	115000ef          	jal	5148 <__adddf3>
    4838:	00050b93          	mv	s7,a0
    483c:	00058c13          	mv	s8,a1
    4840:	03012603          	lw	a2,48(sp)
    4844:	03412683          	lw	a3,52(sp)
    4848:	00048513          	mv	a0,s1
    484c:	00040593          	mv	a1,s0
    4850:	0f1000ef          	jal	5140 <__subdf3>
    4854:	03812603          	lw	a2,56(sp)
    4858:	03c12683          	lw	a3,60(sp)
    485c:	00050413          	mv	s0,a0
    4860:	00058493          	mv	s1,a1
    4864:	00090513          	mv	a0,s2
    4868:	00098593          	mv	a1,s3
    486c:	0d5000ef          	jal	5140 <__subdf3>
    4870:	00050913          	mv	s2,a0
    4874:	00058993          	mv	s3,a1
    4878:	00040613          	mv	a2,s0
    487c:	00048693          	mv	a3,s1
    4880:	00040513          	mv	a0,s0
    4884:	00048593          	mv	a1,s1
    4888:	108010ef          	jal	5990 <__muldf3>
    488c:	00050413          	mv	s0,a0
    4890:	00058493          	mv	s1,a1
    4894:	00090613          	mv	a2,s2
    4898:	00098693          	mv	a3,s3
    489c:	00090513          	mv	a0,s2
    48a0:	00098593          	mv	a1,s3
    48a4:	0ec010ef          	jal	5990 <__muldf3>
    48a8:	00050613          	mv	a2,a0
    48ac:	00058693          	mv	a3,a1
    48b0:	00040513          	mv	a0,s0
    48b4:	00048593          	mv	a1,s1
    48b8:	091000ef          	jal	5148 <__adddf3>
    48bc:	000067b7          	lui	a5,0x6
    48c0:	6e07a603          	lw	a2,1760(a5) # 66e0 <MAP_WIDTH+0x5c>
    48c4:	6e47a683          	lw	a3,1764(a5)
    48c8:	00050a13          	mv	s4,a0
    48cc:	00058a93          	mv	s5,a1
    48d0:	0c0010ef          	jal	5990 <__muldf3>
    48d4:	00050413          	mv	s0,a0
    48d8:	00058493          	mv	s1,a1
    48dc:	00040613          	mv	a2,s0
    48e0:	00048693          	mv	a3,s1
    48e4:	000a0513          	mv	a0,s4
    48e8:	000a8593          	mv	a1,s5
    48ec:	36d000ef          	jal	5458 <__divdf3>
    48f0:	00040613          	mv	a2,s0
    48f4:	00048693          	mv	a3,s1
    48f8:	051000ef          	jal	5148 <__adddf3>
    48fc:	000067b7          	lui	a5,0x6
    4900:	6e07a603          	lw	a2,1760(a5) # 66e0 <MAP_WIDTH+0x5c>
    4904:	6e47a683          	lw	a3,1764(a5)
    4908:	088010ef          	jal	5990 <__muldf3>
    490c:	00050613          	mv	a2,a0
    4910:	00058693          	mv	a3,a1
    4914:	00040513          	mv	a0,s0
    4918:	00048593          	mv	a1,s1
    491c:	025000ef          	jal	5140 <__subdf3>
    4920:	00050613          	mv	a2,a0
    4924:	00058693          	mv	a3,a1
    4928:	00050913          	mv	s2,a0
    492c:	00058993          	mv	s3,a1
    4930:	00040513          	mv	a0,s0
    4934:	00048593          	mv	a1,s1
    4938:	009000ef          	jal	5140 <__subdf3>
    493c:	01812603          	lw	a2,24(sp)
    4940:	01c12683          	lw	a3,28(sp)
    4944:	00050413          	mv	s0,a0
    4948:	00058493          	mv	s1,a1
    494c:	00090513          	mv	a0,s2
    4950:	00098593          	mv	a1,s3
    4954:	70d000ef          	jal	5860 <__gtdf2>
    4958:	f8a042e3          	bgtz	a0,48dc <look2+0x268>
    495c:	000067b7          	lui	a5,0x6
    4960:	6b07a903          	lw	s2,1712(a5) # 66b0 <MAP_WIDTH+0x2c>
    4964:	6b47a983          	lw	s3,1716(a5)
    4968:	000b8c93          	mv	s9,s7
    496c:	000c0a93          	mv	s5,s8
    4970:	00012603          	lw	a2,0(sp)
    4974:	00412683          	lw	a3,4(sp)
    4978:	000c8513          	mv	a0,s9
    497c:	000a8593          	mv	a1,s5
    4980:	66d000ef          	jal	57ec <__gedf2>
    4984:	000c8813          	mv	a6,s9
    4988:	000a8893          	mv	a7,s5
    498c:	00090613          	mv	a2,s2
    4990:	00098693          	mv	a3,s3
    4994:	04055263          	bgez	a0,49d8 <look2+0x364>
    4998:	00812603          	lw	a2,8(sp)
    499c:	00c12683          	lw	a3,12(sp)
    49a0:	00088593          	mv	a1,a7
    49a4:	00080513          	mv	a0,a6
    49a8:	719000ef          	jal	58c0 <__ledf2>
    49ac:	00006737          	lui	a4,0x6
    49b0:	00050793          	mv	a5,a0
    49b4:	6b072603          	lw	a2,1712(a4) # 66b0 <MAP_WIDTH+0x2c>
    49b8:	6b472683          	lw	a3,1716(a4)
    49bc:	000c8513          	mv	a0,s9
    49c0:	000a8593          	mv	a1,s5
    49c4:	02f04663          	bgtz	a5,49f0 <look2+0x37c>
    49c8:	780000ef          	jal	5148 <__adddf3>
    49cc:	00050c93          	mv	s9,a0
    49d0:	00058a93          	mv	s5,a1
    49d4:	f9dff06f          	j	4970 <look2+0x2fc>
    49d8:	00080513          	mv	a0,a6
    49dc:	00088593          	mv	a1,a7
    49e0:	760000ef          	jal	5140 <__subdf3>
    49e4:	00050c93          	mv	s9,a0
    49e8:	00058a93          	mv	s5,a1
    49ec:	f85ff06f          	j	4970 <look2+0x2fc>
    49f0:	00000613          	li	a2,0
    49f4:	00000693          	li	a3,0
    49f8:	750000ef          	jal	5148 <__adddf3>
    49fc:	000a8693          	mv	a3,s5
    4a00:	02a12023          	sw	a0,32(sp)
    4a04:	02b12223          	sw	a1,36(sp)
    4a08:	000c8613          	mv	a2,s9
    4a0c:	000a8593          	mv	a1,s5
    4a10:	000c8513          	mv	a0,s9
    4a14:	77d000ef          	jal	5990 <__muldf3>
    4a18:	00050613          	mv	a2,a0
    4a1c:	00058693          	mv	a3,a1
    4a20:	000c8513          	mv	a0,s9
    4a24:	000a8593          	mv	a1,s5
    4a28:	769000ef          	jal	5990 <__muldf3>
    4a2c:	04812603          	lw	a2,72(sp)
    4a30:	04c12683          	lw	a3,76(sp)
    4a34:	80000a37          	lui	s4,0x80000
    4a38:	00058913          	mv	s2,a1
    4a3c:	00ba45b3          	xor	a1,s4,a1
    4a40:	00050d93          	mv	s11,a0
    4a44:	215000ef          	jal	5458 <__divdf3>
    4a48:	02012603          	lw	a2,32(sp)
    4a4c:	02412683          	lw	a3,36(sp)
    4a50:	6f8000ef          	jal	5148 <__adddf3>
    4a54:	00090693          	mv	a3,s2
    4a58:	02a12023          	sw	a0,32(sp)
    4a5c:	02b12223          	sw	a1,36(sp)
    4a60:	000d8613          	mv	a2,s11
    4a64:	000a8593          	mv	a1,s5
    4a68:	000c8513          	mv	a0,s9
    4a6c:	725000ef          	jal	5990 <__muldf3>
    4a70:	00050613          	mv	a2,a0
    4a74:	00058693          	mv	a3,a1
    4a78:	000c8513          	mv	a0,s9
    4a7c:	000a8593          	mv	a1,s5
    4a80:	711000ef          	jal	5990 <__muldf3>
    4a84:	05012603          	lw	a2,80(sp)
    4a88:	05412683          	lw	a3,84(sp)
    4a8c:	00050913          	mv	s2,a0
    4a90:	00058993          	mv	s3,a1
    4a94:	1c5000ef          	jal	5458 <__divdf3>
    4a98:	02012603          	lw	a2,32(sp)
    4a9c:	02412683          	lw	a3,36(sp)
    4aa0:	6a8000ef          	jal	5148 <__adddf3>
    4aa4:	00090613          	mv	a2,s2
    4aa8:	00098693          	mv	a3,s3
    4aac:	02a12023          	sw	a0,32(sp)
    4ab0:	02b12223          	sw	a1,36(sp)
    4ab4:	000c8513          	mv	a0,s9
    4ab8:	000a8593          	mv	a1,s5
    4abc:	6d5000ef          	jal	5990 <__muldf3>
    4ac0:	00050613          	mv	a2,a0
    4ac4:	00058693          	mv	a3,a1
    4ac8:	000c8513          	mv	a0,s9
    4acc:	000a8593          	mv	a1,s5
    4ad0:	6c1000ef          	jal	5990 <__muldf3>
    4ad4:	05812603          	lw	a2,88(sp)
    4ad8:	05c12683          	lw	a3,92(sp)
    4adc:	0145c7b3          	xor	a5,a1,s4
    4ae0:	00078593          	mv	a1,a5
    4ae4:	175000ef          	jal	5458 <__divdf3>
    4ae8:	02012603          	lw	a2,32(sp)
    4aec:	02412683          	lw	a3,36(sp)
    4af0:	658000ef          	jal	5148 <__adddf3>
    4af4:	000067b7          	lui	a5,0x6
    4af8:	7707a603          	lw	a2,1904(a5) # 6770 <MAP_WIDTH+0xec>
    4afc:	7747a683          	lw	a3,1908(a5)
    4b00:	691000ef          	jal	5990 <__muldf3>
    4b04:	00000613          	li	a2,0
    4b08:	00000693          	li	a3,0
    4b0c:	00050913          	mv	s2,a0
    4b10:	00058a93          	mv	s5,a1
    4b14:	00058993          	mv	s3,a1
    4b18:	4d5000ef          	jal	57ec <__gedf2>
    4b1c:	00055463          	bgez	a0,4b24 <look2+0x4b0>
    4b20:	015a49b3          	xor	s3,s4,s5
    4b24:	04012603          	lw	a2,64(sp)
    4b28:	04412683          	lw	a3,68(sp)
    4b2c:	000b8513          	mv	a0,s7
    4b30:	000c0593          	mv	a1,s8
    4b34:	60c000ef          	jal	5140 <__subdf3>
    4b38:	000067b7          	lui	a5,0x6
    4b3c:	7707a603          	lw	a2,1904(a5) # 6770 <MAP_WIDTH+0xec>
    4b40:	7747a683          	lw	a3,1908(a5)
    4b44:	02a12023          	sw	a0,32(sp)
    4b48:	02b12223          	sw	a1,36(sp)
    4b4c:	00090513          	mv	a0,s2
    4b50:	00098593          	mv	a1,s3
    4b54:	5f4000ef          	jal	5148 <__adddf3>
    4b58:	00050613          	mv	a2,a0
    4b5c:	00058693          	mv	a3,a1
    4b60:	00050913          	mv	s2,a0
    4b64:	00058993          	mv	s3,a1
    4b68:	00040513          	mv	a0,s0
    4b6c:	00048593          	mv	a1,s1
    4b70:	5d0000ef          	jal	5140 <__subdf3>
    4b74:	00000613          	li	a2,0
    4b78:	00000693          	li	a3,0
    4b7c:	00050a13          	mv	s4,a0
    4b80:	00058a93          	mv	s5,a1
    4b84:	4dd000ef          	jal	5860 <__gtdf2>
    4b88:	04a05263          	blez	a0,4bcc <look2+0x558>
    4b8c:	000a0613          	mv	a2,s4
    4b90:	000a8693          	mv	a3,s5
    4b94:	00090513          	mv	a0,s2
    4b98:	00098593          	mv	a1,s3
    4b9c:	0bd000ef          	jal	5458 <__divdf3>
    4ba0:	000067b7          	lui	a5,0x6
    4ba4:	6ac7a803          	lw	a6,1708(a5) # 66ac <MAP_WIDTH+0x28>
    4ba8:	6a87a783          	lw	a5,1704(a5)
    4bac:	00050913          	mv	s2,a0
    4bb0:	00080693          	mv	a3,a6
    4bb4:	00078613          	mv	a2,a5
    4bb8:	00058993          	mv	s3,a1
    4bbc:	02f12423          	sw	a5,40(sp)
    4bc0:	03012623          	sw	a6,44(sp)
    4bc4:	4fd000ef          	jal	58c0 <__ledf2>
    4bc8:	10a05e63          	blez	a0,4ce4 <look2+0x670>
    4bcc:	00006937          	lui	s2,0x6
    4bd0:	6c092603          	lw	a2,1728(s2) # 66c0 <MAP_WIDTH+0x3c>
    4bd4:	6c492683          	lw	a3,1732(s2)
    4bd8:	02012503          	lw	a0,32(sp)
    4bdc:	02412583          	lw	a1,36(sp)
    4be0:	05100a13          	li	s4,81
    4be4:	564000ef          	jal	5148 <__adddf3>
    4be8:	000067b7          	lui	a5,0x6
    4bec:	7787a603          	lw	a2,1912(a5) # 6778 <MAP_WIDTH+0xf4>
    4bf0:	77c7a683          	lw	a3,1916(a5)
    4bf4:	59d000ef          	jal	5990 <__muldf3>
    4bf8:	6c092603          	lw	a2,1728(s2)
    4bfc:	6c492683          	lw	a3,1732(s2)
    4c00:	059000ef          	jal	5458 <__divdf3>
    4c04:	000067b7          	lui	a5,0x6
    4c08:	6e07a603          	lw	a2,1760(a5) # 66e0 <MAP_WIDTH+0x5c>
    4c0c:	6e47a683          	lw	a3,1764(a5)
    4c10:	581000ef          	jal	5990 <__muldf3>
    4c14:	000067b7          	lui	a5,0x6
    4c18:	7807a603          	lw	a2,1920(a5) # 6780 <MAP_WIDTH+0xfc>
    4c1c:	7847a683          	lw	a3,1924(a5)
    4c20:	520000ef          	jal	5140 <__subdf3>
    4c24:	2e5000ef          	jal	5708 <__fixdfsi>
    4c28:	00050a93          	mv	s5,a0
    4c2c:	0a054863          	bltz	a0,4cdc <look2+0x668>
    4c30:	13f00993          	li	s3,319
    4c34:	002a9913          	slli	s2,s5,0x2
    4c38:	06090793          	addi	a5,s2,96
    4c3c:	00278bb3          	add	s7,a5,sp
    4c40:	000ba503          	lw	a0,0(s7)
    4c44:	369000ef          	jal	57ac <__floatsidf>
    4c48:	00040613          	mv	a2,s0
    4c4c:	00048693          	mv	a3,s1
    4c50:	411000ef          	jal	5860 <__gtdf2>
    4c54:	01412703          	lw	a4,20(sp)
    4c58:	00050793          	mv	a5,a0
    4c5c:	00048593          	mv	a1,s1
    4c60:	00040513          	mv	a0,s0
    4c64:	01270933          	add	s2,a4,s2
    4c68:	00f05863          	blez	a5,4c78 <look2+0x604>
    4c6c:	01a92023          	sw	s10,0(s2)
    4c70:	299000ef          	jal	5708 <__fixdfsi>
    4c74:	00aba023          	sw	a0,0(s7)
    4c78:	001a8793          	addi	a5,s5,1
    4c7c:	ec1a8a93          	addi	s5,s5,-319
    4c80:	00f9c463          	blt	s3,a5,4c88 <look2+0x614>
    4c84:	00078a93          	mv	s5,a5
    4c88:	fffa0a13          	addi	s4,s4,-1 # 7fffffff <_stack_end+0x7fef9877>
    4c8c:	fa0a14e3          	bnez	s4,4c34 <look2+0x5c0>
    4c90:	000067b7          	lui	a5,0x6
    4c94:	00cb0b13          	addi	s6,s6,12
    4c98:	28078793          	addi	a5,a5,640 # 6280 <timeoutcount.0>
    4c9c:	b16798e3          	bne	a5,s6,47ac <look2+0x138>
    4ca0:	59c12083          	lw	ra,1436(sp)
    4ca4:	59812403          	lw	s0,1432(sp)
    4ca8:	59412483          	lw	s1,1428(sp)
    4cac:	59012903          	lw	s2,1424(sp)
    4cb0:	58c12983          	lw	s3,1420(sp)
    4cb4:	58812a03          	lw	s4,1416(sp)
    4cb8:	58412a83          	lw	s5,1412(sp)
    4cbc:	58012b03          	lw	s6,1408(sp)
    4cc0:	57c12b83          	lw	s7,1404(sp)
    4cc4:	57812c03          	lw	s8,1400(sp)
    4cc8:	57412c83          	lw	s9,1396(sp)
    4ccc:	57012d03          	lw	s10,1392(sp)
    4cd0:	56c12d83          	lw	s11,1388(sp)
    4cd4:	5a010113          	addi	sp,sp,1440
    4cd8:	00008067          	ret
    4cdc:	14050a93          	addi	s5,a0,320
    4ce0:	f51ff06f          	j	4c30 <look2+0x5bc>
    4ce4:	00000613          	li	a2,0
    4ce8:	00000693          	li	a3,0
    4cec:	00090513          	mv	a0,s2
    4cf0:	00098593          	mv	a1,s3
    4cf4:	454000ef          	jal	5148 <__adddf3>
    4cf8:	00050c13          	mv	s8,a0
    4cfc:	00058c93          	mv	s9,a1
    4d00:	00090613          	mv	a2,s2
    4d04:	00098693          	mv	a3,s3
    4d08:	00090513          	mv	a0,s2
    4d0c:	00098593          	mv	a1,s3
    4d10:	481000ef          	jal	5990 <__muldf3>
    4d14:	00050613          	mv	a2,a0
    4d18:	00058693          	mv	a3,a1
    4d1c:	00090513          	mv	a0,s2
    4d20:	00098593          	mv	a1,s3
    4d24:	46d000ef          	jal	5990 <__muldf3>
    4d28:	00006737          	lui	a4,0x6
    4d2c:	6f872603          	lw	a2,1784(a4) # 66f8 <MAP_WIDTH+0x74>
    4d30:	6fc72683          	lw	a3,1788(a4)
    4d34:	80000bb7          	lui	s7,0x80000
    4d38:	00058a13          	mv	s4,a1
    4d3c:	00bbc5b3          	xor	a1,s7,a1
    4d40:	00050d93          	mv	s11,a0
    4d44:	714000ef          	jal	5458 <__divdf3>
    4d48:	000c0613          	mv	a2,s8
    4d4c:	000c8693          	mv	a3,s9
    4d50:	3f8000ef          	jal	5148 <__adddf3>
    4d54:	00050c13          	mv	s8,a0
    4d58:	00058c93          	mv	s9,a1
    4d5c:	000a0693          	mv	a3,s4
    4d60:	000d8613          	mv	a2,s11
    4d64:	00090513          	mv	a0,s2
    4d68:	00098593          	mv	a1,s3
    4d6c:	425000ef          	jal	5990 <__muldf3>
    4d70:	00050613          	mv	a2,a0
    4d74:	00058693          	mv	a3,a1
    4d78:	00090513          	mv	a0,s2
    4d7c:	00098593          	mv	a1,s3
    4d80:	411000ef          	jal	5990 <__muldf3>
    4d84:	000067b7          	lui	a5,0x6
    4d88:	7007a603          	lw	a2,1792(a5) # 6700 <MAP_WIDTH+0x7c>
    4d8c:	7047a683          	lw	a3,1796(a5)
    4d90:	00050a13          	mv	s4,a0
    4d94:	00058a93          	mv	s5,a1
    4d98:	6c0000ef          	jal	5458 <__divdf3>
    4d9c:	000c0613          	mv	a2,s8
    4da0:	000c8693          	mv	a3,s9
    4da4:	3a4000ef          	jal	5148 <__adddf3>
    4da8:	00050c13          	mv	s8,a0
    4dac:	00058c93          	mv	s9,a1
    4db0:	000a0613          	mv	a2,s4
    4db4:	000a8693          	mv	a3,s5
    4db8:	00090513          	mv	a0,s2
    4dbc:	00098593          	mv	a1,s3
    4dc0:	3d1000ef          	jal	5990 <__muldf3>
    4dc4:	00050613          	mv	a2,a0
    4dc8:	00058693          	mv	a3,a1
    4dcc:	00090513          	mv	a0,s2
    4dd0:	00098593          	mv	a1,s3
    4dd4:	3bd000ef          	jal	5990 <__muldf3>
    4dd8:	000067b7          	lui	a5,0x6
    4ddc:	7087a603          	lw	a2,1800(a5) # 6708 <MAP_WIDTH+0x84>
    4de0:	70c7a683          	lw	a3,1804(a5)
    4de4:	00058a93          	mv	s5,a1
    4de8:	00bbc5b3          	xor	a1,s7,a1
    4dec:	00050a13          	mv	s4,a0
    4df0:	668000ef          	jal	5458 <__divdf3>
    4df4:	000c0613          	mv	a2,s8
    4df8:	000c8693          	mv	a3,s9
    4dfc:	34c000ef          	jal	5148 <__adddf3>
    4e00:	00050c13          	mv	s8,a0
    4e04:	00058c93          	mv	s9,a1
    4e08:	000a0613          	mv	a2,s4
    4e0c:	000a8693          	mv	a3,s5
    4e10:	00090513          	mv	a0,s2
    4e14:	00098593          	mv	a1,s3
    4e18:	379000ef          	jal	5990 <__muldf3>
    4e1c:	00050613          	mv	a2,a0
    4e20:	00058693          	mv	a3,a1
    4e24:	00090513          	mv	a0,s2
    4e28:	00098593          	mv	a1,s3
    4e2c:	365000ef          	jal	5990 <__muldf3>
    4e30:	000067b7          	lui	a5,0x6
    4e34:	7107a603          	lw	a2,1808(a5) # 6710 <MAP_WIDTH+0x8c>
    4e38:	7147a683          	lw	a3,1812(a5)
    4e3c:	00050a13          	mv	s4,a0
    4e40:	00058a93          	mv	s5,a1
    4e44:	614000ef          	jal	5458 <__divdf3>
    4e48:	000c0613          	mv	a2,s8
    4e4c:	000c8693          	mv	a3,s9
    4e50:	2f8000ef          	jal	5148 <__adddf3>
    4e54:	00050c13          	mv	s8,a0
    4e58:	00058c93          	mv	s9,a1
    4e5c:	000a0613          	mv	a2,s4
    4e60:	000a8693          	mv	a3,s5
    4e64:	00090513          	mv	a0,s2
    4e68:	00098593          	mv	a1,s3
    4e6c:	325000ef          	jal	5990 <__muldf3>
    4e70:	00050613          	mv	a2,a0
    4e74:	00058693          	mv	a3,a1
    4e78:	00090513          	mv	a0,s2
    4e7c:	00098593          	mv	a1,s3
    4e80:	311000ef          	jal	5990 <__muldf3>
    4e84:	000067b7          	lui	a5,0x6
    4e88:	7187a603          	lw	a2,1816(a5) # 6718 <MAP_WIDTH+0x94>
    4e8c:	71c7a683          	lw	a3,1820(a5)
    4e90:	00058a93          	mv	s5,a1
    4e94:	00bbc5b3          	xor	a1,s7,a1
    4e98:	00050a13          	mv	s4,a0
    4e9c:	5bc000ef          	jal	5458 <__divdf3>
    4ea0:	000c0613          	mv	a2,s8
    4ea4:	000c8693          	mv	a3,s9
    4ea8:	2a0000ef          	jal	5148 <__adddf3>
    4eac:	00050c13          	mv	s8,a0
    4eb0:	00058c93          	mv	s9,a1
    4eb4:	000a0613          	mv	a2,s4
    4eb8:	000a8693          	mv	a3,s5
    4ebc:	00090513          	mv	a0,s2
    4ec0:	00098593          	mv	a1,s3
    4ec4:	2cd000ef          	jal	5990 <__muldf3>
    4ec8:	00050613          	mv	a2,a0
    4ecc:	00058693          	mv	a3,a1
    4ed0:	00090513          	mv	a0,s2
    4ed4:	00098593          	mv	a1,s3
    4ed8:	2b9000ef          	jal	5990 <__muldf3>
    4edc:	000067b7          	lui	a5,0x6
    4ee0:	7207a603          	lw	a2,1824(a5) # 6720 <MAP_WIDTH+0x9c>
    4ee4:	7247a683          	lw	a3,1828(a5)
    4ee8:	00050a13          	mv	s4,a0
    4eec:	00058a93          	mv	s5,a1
    4ef0:	568000ef          	jal	5458 <__divdf3>
    4ef4:	000c0613          	mv	a2,s8
    4ef8:	000c8693          	mv	a3,s9
    4efc:	24c000ef          	jal	5148 <__adddf3>
    4f00:	000a0613          	mv	a2,s4
    4f04:	000a8693          	mv	a3,s5
    4f08:	00050c13          	mv	s8,a0
    4f0c:	00058c93          	mv	s9,a1
    4f10:	00090513          	mv	a0,s2
    4f14:	00098593          	mv	a1,s3
    4f18:	279000ef          	jal	5990 <__muldf3>
    4f1c:	00050613          	mv	a2,a0
    4f20:	00058693          	mv	a3,a1
    4f24:	00090513          	mv	a0,s2
    4f28:	00098593          	mv	a1,s3
    4f2c:	265000ef          	jal	5990 <__muldf3>
    4f30:	0175c7b3          	xor	a5,a1,s7
    4f34:	00078593          	mv	a1,a5
    4f38:	000067b7          	lui	a5,0x6
    4f3c:	7287a603          	lw	a2,1832(a5) # 6728 <MAP_WIDTH+0xa4>
    4f40:	72c7a683          	lw	a3,1836(a5)
    4f44:	00006937          	lui	s2,0x6
    4f48:	000069b7          	lui	s3,0x6
    4f4c:	50c000ef          	jal	5458 <__divdf3>
    4f50:	000c0613          	mv	a2,s8
    4f54:	000c8693          	mv	a3,s9
    4f58:	1f0000ef          	jal	5148 <__adddf3>
    4f5c:	00050613          	mv	a2,a0
    4f60:	00058693          	mv	a3,a1
    4f64:	1e4000ef          	jal	5148 <__adddf3>
    4f68:	77892603          	lw	a2,1912(s2) # 6778 <MAP_WIDTH+0xf4>
    4f6c:	77c92683          	lw	a3,1916(s2)
    4f70:	00006ab7          	lui	s5,0x6
    4f74:	21d000ef          	jal	5990 <__muldf3>
    4f78:	6c09a603          	lw	a2,1728(s3) # 66c0 <MAP_WIDTH+0x3c>
    4f7c:	6c49a683          	lw	a3,1732(s3)
    4f80:	4d8000ef          	jal	5458 <__divdf3>
    4f84:	6e0aa603          	lw	a2,1760(s5) # 66e0 <MAP_WIDTH+0x5c>
    4f88:	6e4aa683          	lw	a3,1764(s5)
    4f8c:	205000ef          	jal	5990 <__muldf3>
    4f90:	02812603          	lw	a2,40(sp)
    4f94:	02c12683          	lw	a3,44(sp)
    4f98:	1b0000ef          	jal	5148 <__adddf3>
    4f9c:	76c000ef          	jal	5708 <__fixdfsi>
    4fa0:	6c09a603          	lw	a2,1728(s3)
    4fa4:	6c49a683          	lw	a3,1732(s3)
    4fa8:	00050a13          	mv	s4,a0
    4fac:	02412583          	lw	a1,36(sp)
    4fb0:	02012503          	lw	a0,32(sp)
    4fb4:	194000ef          	jal	5148 <__adddf3>
    4fb8:	77892603          	lw	a2,1912(s2)
    4fbc:	77c92683          	lw	a3,1916(s2)
    4fc0:	1d1000ef          	jal	5990 <__muldf3>
    4fc4:	6c09a603          	lw	a2,1728(s3)
    4fc8:	6c49a683          	lw	a3,1732(s3)
    4fcc:	48c000ef          	jal	5458 <__divdf3>
    4fd0:	6e0aa603          	lw	a2,1760(s5)
    4fd4:	6e4aa683          	lw	a3,1764(s5)
    4fd8:	1b9000ef          	jal	5990 <__muldf3>
    4fdc:	00050913          	mv	s2,a0
    4fe0:	01fa5513          	srli	a0,s4,0x1f
    4fe4:	01450533          	add	a0,a0,s4
    4fe8:	40155513          	srai	a0,a0,0x1
    4fec:	00058993          	mv	s3,a1
    4ff0:	7bc000ef          	jal	57ac <__floatsidf>
    4ff4:	00050613          	mv	a2,a0
    4ff8:	00058693          	mv	a3,a1
    4ffc:	00090513          	mv	a0,s2
    5000:	00098593          	mv	a1,s3
    5004:	13c000ef          	jal	5140 <__subdf3>
    5008:	700000ef          	jal	5708 <__fixdfsi>
    500c:	00050a93          	mv	s5,a0
    5010:	00054663          	bltz	a0,501c <look2+0x9a8>
    5014:	f9405463          	blez	s4,479c <look2+0x128>
    5018:	c19ff06f          	j	4c30 <look2+0x5bc>
    501c:	14050a93          	addi	s5,a0,320
    5020:	f7405e63          	blez	s4,479c <look2+0x128>
    5024:	c0dff06f          	j	4c30 <look2+0x5bc>
    5028:	000067b7          	lui	a5,0x6
    502c:	7407a603          	lw	a2,1856(a5) # 6740 <MAP_WIDTH+0xbc>
    5030:	7447a683          	lw	a3,1860(a5)
    5034:	000b8513          	mv	a0,s7
    5038:	000c0593          	mv	a1,s8
    503c:	104000ef          	jal	5140 <__subdf3>
    5040:	00050b93          	mv	s7,a0
    5044:	00058c13          	mv	s8,a1
    5048:	ff8ff06f          	j	4840 <look2+0x1cc>

0000504c <game_loop>:
    504c:	000067b7          	lui	a5,0x6
    5050:	b9c7a703          	lw	a4,-1124(a5) # 5b9c <game_start.0>
    5054:	ff010113          	addi	sp,sp,-16
    5058:	00112623          	sw	ra,12(sp)
    505c:	02071e63          	bnez	a4,5098 <game_loop+0x4c>
    5060:	04000737          	lui	a4,0x4000
    5064:	0d072783          	lw	a5,208(a4) # 40000d0 <_stack_end+0x3ef9948>
    5068:	0017f793          	andi	a5,a5,1
    506c:	0cf72823          	sw	a5,208(a4)
    5070:	04079663          	bnez	a5,50bc <game_loop+0x70>
    5074:	000067b7          	lui	a5,0x6
    5078:	2887a703          	lw	a4,648(a5) # 6288 <movement_allowed>
    507c:	06071263          	bnez	a4,50e0 <game_loop+0x94>
    5080:	000067b7          	lui	a5,0x6
    5084:	28c7a703          	lw	a4,652(a5) # 628c <frame_time>
    5088:	08071663          	bnez	a4,5114 <game_loop+0xc8>
    508c:	00c12083          	lw	ra,12(sp)
    5090:	01010113          	addi	sp,sp,16
    5094:	00008067          	ret
    5098:	00000513          	li	a0,0
    509c:	c49fb0ef          	jal	ce4 <game_init>
    50a0:	000067b7          	lui	a5,0x6
    50a4:	b807ae23          	sw	zero,-1124(a5) # 5b9c <game_start.0>
    50a8:	04000737          	lui	a4,0x4000
    50ac:	0d072783          	lw	a5,208(a4) # 40000d0 <_stack_end+0x3ef9948>
    50b0:	0017f793          	andi	a5,a5,1
    50b4:	0cf72823          	sw	a5,208(a4)
    50b8:	fa078ee3          	beqz	a5,5074 <game_loop+0x28>
    50bc:	040007b7          	lui	a5,0x4000
    50c0:	0107a503          	lw	a0,16(a5) # 4000010 <_stack_end+0x3ef9888>
    50c4:	00f57513          	andi	a0,a0,15
    50c8:	00a7a823          	sw	a0,16(a5)
    50cc:	c19fb0ef          	jal	ce4 <game_init>
    50d0:	da4ff0ef          	jal	4674 <look2>
    50d4:	000067b7          	lui	a5,0x6
    50d8:	2887a703          	lw	a4,648(a5) # 6288 <movement_allowed>
    50dc:	fa0702e3          	beqz	a4,5080 <game_loop+0x34>
    50e0:	04000737          	lui	a4,0x4000
    50e4:	01072503          	lw	a0,16(a4) # 4000010 <_stack_end+0x3ef9888>
    50e8:	3f057513          	andi	a0,a0,1008
    50ec:	00a72823          	sw	a0,16(a4)
    50f0:	c55fd0ef          	jal	2d44 <move>
    50f4:	000067b7          	lui	a5,0x6
    50f8:	2887a703          	lw	a4,648(a5) # 6288 <movement_allowed>
    50fc:	fff70713          	addi	a4,a4,-1
    5100:	28e7a423          	sw	a4,648(a5)
    5104:	d70ff0ef          	jal	4674 <look2>
    5108:	000067b7          	lui	a5,0x6
    510c:	28c7a703          	lw	a4,652(a5) # 628c <frame_time>
    5110:	f6070ee3          	beqz	a4,508c <game_loop+0x40>
    5114:	00006537          	lui	a0,0x6
    5118:	ba050513          	addi	a0,a0,-1120 # 5ba0 <colors>
    511c:	14000593          	li	a1,320
    5120:	8f9fb0ef          	jal	a18 <set_vga>
    5124:	000067b7          	lui	a5,0x6
    5128:	28c7a703          	lw	a4,652(a5) # 628c <frame_time>
    512c:	00c12083          	lw	ra,12(sp)
    5130:	fff70713          	addi	a4,a4,-1
    5134:	28e7a623          	sw	a4,652(a5)
    5138:	01010113          	addi	sp,sp,16
    513c:	00008067          	ret

00005140 <__subdf3>:
    5140:	800007b7          	lui	a5,0x80000
    5144:	00f6c6b3          	xor	a3,a3,a5

00005148 <__adddf3>:
    5148:	ffe007b7          	lui	a5,0xffe00
    514c:	00159393          	slli	t2,a1,0x1
    5150:	00169293          	slli	t0,a3,0x1
    5154:	2cf3fc63          	bgeu	t2,a5,542c <infnan>
    5158:	2cf2f263          	bgeu	t0,a5,541c <infnan_B_only>
    515c:	0153d393          	srli	t2,t2,0x15
    5160:	0152d293          	srli	t0,t0,0x15
    5164:	28038c63          	beqz	t2,53fc <zero_operand>
    5168:	2a028063          	beqz	t0,5408 <zero_operand_Y>
    516c:	40538333          	sub	t1,t2,t0
    5170:	0253f263          	bgeu	t2,t0,5194 <__adddf3+0x4c>
    5174:	40600333          	neg	t1,t1
    5178:	00028393          	mv	t2,t0
    517c:	00c54633          	xor	a2,a0,a2
    5180:	00d5c6b3          	xor	a3,a1,a3
    5184:	00a64533          	xor	a0,a2,a0
    5188:	00b6c5b3          	xor	a1,a3,a1
    518c:	00c54633          	xor	a2,a0,a2
    5190:	00d5c6b3          	xor	a3,a1,a3
    5194:	03733293          	sltiu	t0,t1,55
    5198:	14028663          	beqz	t0,52e4 <exit>
    519c:	fff7c793          	not	a5,a5
    51a0:	01429293          	slli	t0,t0,0x14
    51a4:	0055e5b3          	or	a1,a1,t0
    51a8:	0056e6b3          	or	a3,a3,t0
    51ac:	00b29293          	slli	t0,t0,0xb
    51b0:	0055b733          	sltu	a4,a1,t0
    51b4:	00f5f5b3          	and	a1,a1,a5
    51b8:	00071a63          	bnez	a4,51cc <__adddf3+0x84>
    51bc:	00153713          	seqz	a4,a0
    51c0:	fff5c593          	not	a1,a1
    51c4:	40a00533          	neg	a0,a0
    51c8:	00e585b3          	add	a1,a1,a4
    51cc:	0056b733          	sltu	a4,a3,t0
    51d0:	00f6f6b3          	and	a3,a3,a5
    51d4:	00071a63          	bnez	a4,51e8 <sum>
    51d8:	00163713          	seqz	a4,a2
    51dc:	fff6c693          	not	a3,a3
    51e0:	40c00633          	neg	a2,a2
    51e4:	00e686b3          	add	a3,a3,a4

000051e8 <sum>:
    51e8:	fff38393          	addi	t2,t2,-1
    51ec:	00000713          	li	a4,0
    51f0:	02000793          	li	a5,32
    51f4:	00f36a63          	bltu	t1,a5,5208 <sum+0x20>
    51f8:	00060713          	mv	a4,a2
    51fc:	00068613          	mv	a2,a3
    5200:	41f6d693          	srai	a3,a3,0x1f
    5204:	fe030313          	addi	t1,t1,-32
    5208:	02030863          	beqz	t1,5238 <sum+0x50>
    520c:	406782b3          	sub	t0,a5,t1
    5210:	005717b3          	sll	a5,a4,t0
    5214:	00675733          	srl	a4,a4,t1
    5218:	00f037b3          	snez	a5,a5
    521c:	00f76733          	or	a4,a4,a5
    5220:	005617b3          	sll	a5,a2,t0
    5224:	00f76733          	or	a4,a4,a5
    5228:	00665633          	srl	a2,a2,t1
    522c:	005697b3          	sll	a5,a3,t0
    5230:	00f66633          	or	a2,a2,a5
    5234:	4066d6b3          	sra	a3,a3,t1
    5238:	00c50533          	add	a0,a0,a2
    523c:	00c53633          	sltu	a2,a0,a2
    5240:	00c686b3          	add	a3,a3,a2
    5244:	00d585b3          	add	a1,a1,a3
    5248:	01f5d293          	srli	t0,a1,0x1f
    524c:	01f29293          	slli	t0,t0,0x1f
    5250:	0205d263          	bgez	a1,5274 <pos_or_zero>
    5254:	40e00733          	neg	a4,a4
    5258:	00173793          	seqz	a5,a4
    525c:	fff54513          	not	a0,a0
    5260:	00f50533          	add	a0,a0,a5
    5264:	00153613          	seqz	a2,a0
    5268:	00f67633          	and	a2,a2,a5
    526c:	fff5c593          	not	a1,a1
    5270:	00c585b3          	add	a1,a1,a2

00005274 <pos_or_zero>:
    5274:	001007b7          	lui	a5,0x100
    5278:	06f5e863          	bltu	a1,a5,52e8 <num_canc>
    527c:	00179793          	slli	a5,a5,0x1
    5280:	02f5ea63          	bltu	a1,a5,52b4 <rounding>
    5284:	00177793          	andi	a5,a4,1
    5288:	00175713          	srli	a4,a4,0x1
    528c:	00f76733          	or	a4,a4,a5
    5290:	01f51793          	slli	a5,a0,0x1f
    5294:	00f76733          	or	a4,a4,a5
    5298:	00155513          	srli	a0,a0,0x1
    529c:	01f59793          	slli	a5,a1,0x1f
    52a0:	00f56533          	or	a0,a0,a5
    52a4:	0015d593          	srli	a1,a1,0x1
    52a8:	00138393          	addi	t2,t2,1
    52ac:	7fe00793          	li	a5,2046
    52b0:	14f3de63          	bge	t2,a5,540c <inf>

000052b4 <rounding>:
    52b4:	800007b7          	lui	a5,0x80000
    52b8:	00f76c63          	bltu	a4,a5,52d0 <exp_sign_exit>
    52bc:	00150513          	addi	a0,a0,1
    52c0:	00153613          	seqz	a2,a0
    52c4:	00c585b3          	add	a1,a1,a2
    52c8:	00f71463          	bne	a4,a5,52d0 <exp_sign_exit>
    52cc:	ffe57513          	andi	a0,a0,-2

000052d0 <exp_sign_exit>:
    52d0:	00a5e633          	or	a2,a1,a0
    52d4:	10060c63          	beqz	a2,53ec <signed_zero>
    52d8:	01439393          	slli	t2,t2,0x14
    52dc:	007585b3          	add	a1,a1,t2

000052e0 <sign_and_exit>:
    52e0:	0055e5b3          	or	a1,a1,t0

000052e4 <exit>:
    52e4:	00008067          	ret

000052e8 <num_canc>:
    52e8:	00159593          	slli	a1,a1,0x1
    52ec:	01f55793          	srli	a5,a0,0x1f
    52f0:	00f5e5b3          	or	a1,a1,a5
    52f4:	00151513          	slli	a0,a0,0x1
    52f8:	01f75793          	srli	a5,a4,0x1f
    52fc:	00f56533          	or	a0,a0,a5
    5300:	00171713          	slli	a4,a4,0x1
    5304:	00038793          	mv	a5,t2
    5308:	fff38393          	addi	t2,t2,-1
    530c:	00078663          	beqz	a5,5318 <denormal_or_str_canc>
    5310:	001007b7          	lui	a5,0x100
    5314:	faf5f0e3          	bgeu	a1,a5,52b4 <rounding>

00005318 <denormal_or_str_canc>:
    5318:	00059863          	bnez	a1,5328 <denormal_or_str_canc+0x10>
    531c:	00050593          	mv	a1,a0
    5320:	00000513          	li	a0,0
    5324:	02000713          	li	a4,32
    5328:	00058693          	mv	a3,a1
    532c:	000107b7          	lui	a5,0x10
    5330:	00f6f663          	bgeu	a3,a5,533c <denormal_or_str_canc+0x24>
    5334:	01069693          	slli	a3,a3,0x10
    5338:	01070713          	addi	a4,a4,16
    533c:	00479793          	slli	a5,a5,0x4
    5340:	00f6f663          	bgeu	a3,a5,534c <denormal_or_str_canc+0x34>
    5344:	00c69693          	slli	a3,a3,0xc
    5348:	00c70713          	addi	a4,a4,12
    534c:	00479793          	slli	a5,a5,0x4
    5350:	00f6f663          	bgeu	a3,a5,535c <denormal_or_str_canc+0x44>
    5354:	00869693          	slli	a3,a3,0x8
    5358:	00870713          	addi	a4,a4,8
    535c:	00479793          	slli	a5,a5,0x4
    5360:	00f6f663          	bgeu	a3,a5,536c <denormal_or_str_canc+0x54>
    5364:	00469693          	slli	a3,a3,0x4
    5368:	00470713          	addi	a4,a4,4
    536c:	00279793          	slli	a5,a5,0x2
    5370:	00f6f663          	bgeu	a3,a5,537c <denormal_or_str_canc+0x64>
    5374:	00269693          	slli	a3,a3,0x2
    5378:	00270713          	addi	a4,a4,2
    537c:	00179793          	slli	a5,a5,0x1
    5380:	00f6f663          	bgeu	a3,a5,538c <denormal_or_str_canc+0x74>
    5384:	00169693          	slli	a3,a3,0x1
    5388:	00170713          	addi	a4,a4,1
    538c:	ff570713          	addi	a4,a4,-11
    5390:	04070863          	beqz	a4,53e0 <denormal_canc>
    5394:	fe070613          	addi	a2,a4,-32
    5398:	02065263          	bgez	a2,53bc <denormal_or_str_canc+0xa4>
    539c:	00c60613          	addi	a2,a2,12
    53a0:	00c05c63          	blez	a2,53b8 <denormal_or_str_canc+0xa0>
    53a4:	00c00693          	li	a3,12
    53a8:	40c68633          	sub	a2,a3,a2
    53ac:	00e59533          	sll	a0,a1,a4
    53b0:	00c5d5b3          	srl	a1,a1,a2
    53b4:	0200006f          	j	53d4 <denormal_or_str_canc+0xbc>
    53b8:	01460613          	addi	a2,a2,20
    53bc:	00c595b3          	sll	a1,a1,a2
    53c0:	02000693          	li	a3,32
    53c4:	40c686b3          	sub	a3,a3,a2
    53c8:	00d556b3          	srl	a3,a0,a3
    53cc:	00d5e5b3          	or	a1,a1,a3
    53d0:	00c51533          	sll	a0,a0,a2
    53d4:	40e383b3          	sub	t2,t2,a4
    53d8:	0003c463          	bltz	t2,53e0 <denormal_canc>
    53dc:	ef5ff06f          	j	52d0 <exp_sign_exit>

000053e0 <denormal_canc>:
    53e0:	00000593          	li	a1,0
    53e4:	02c0006f          	j	5410 <sign_zero_xl>

000053e8 <both_denormals>:
    53e8:	00d5f5b3          	and	a1,a1,a3

000053ec <signed_zero>:
    53ec:	01f5d593          	srli	a1,a1,0x1f
    53f0:	01f59593          	slli	a1,a1,0x1f

000053f4 <zero_xl>:
    53f4:	00000513          	li	a0,0
    53f8:	eedff06f          	j	52e4 <exit>

000053fc <zero_operand>:
    53fc:	fe0286e3          	beqz	t0,53e8 <both_denormals>
    5400:	00068593          	mv	a1,a3
    5404:	00060513          	mv	a0,a2

00005408 <zero_operand_Y>:
    5408:	eddff06f          	j	52e4 <exit>

0000540c <inf>:
    540c:	7ff005b7          	lui	a1,0x7ff00

00005410 <sign_zero_xl>:
    5410:	0055e5b3          	or	a1,a1,t0
    5414:	00000513          	li	a0,0
    5418:	ecdff06f          	j	52e4 <exit>

0000541c <infnan_B_only>:
    541c:	00068593          	mv	a1,a3
    5420:	00060513          	mv	a0,a2
    5424:	00028393          	mv	t2,t0
    5428:	0100006f          	j	5438 <infnan_end>

0000542c <infnan>:
    542c:	00f2f663          	bgeu	t0,a5,5438 <infnan_end>
    5430:	00058693          	mv	a3,a1
    5434:	00050613          	mv	a2,a0

00005438 <infnan_end>:
    5438:	00b39393          	slli	t2,t2,0xb
    543c:	00a3e3b3          	or	t2,t2,a0
    5440:	00039863          	bnez	t2,5450 <produce_nan>
    5444:	00c51663          	bne	a0,a2,5450 <produce_nan>
    5448:	00d59463          	bne	a1,a3,5450 <produce_nan>
    544c:	e99ff06f          	j	52e4 <exit>

00005450 <produce_nan>:
    5450:	7ff805b7          	lui	a1,0x7ff80
    5454:	fa1ff06f          	j	53f4 <zero_xl>

00005458 <__divdf3>:
    5458:	ffe007b7          	lui	a5,0xffe00
    545c:	00159713          	slli	a4,a1,0x1
    5460:	00169313          	slli	t1,a3,0x1
    5464:	24f77c63          	bgeu	a4,a5,56bc <inf_nan>
    5468:	24f37a63          	bgeu	t1,a5,56bc <inf_nan>
    546c:	01575713          	srli	a4,a4,0x15
    5470:	01535313          	srli	t1,t1,0x15
    5474:	22070863          	beqz	a4,56a4 <zero_denormal>
    5478:	22030663          	beqz	t1,56a4 <zero_denormal>

0000547c <normal_case>:
    547c:	40670733          	sub	a4,a4,t1
    5480:	00d5c2b3          	xor	t0,a1,a3
    5484:	00c69693          	slli	a3,a3,0xc
    5488:	00d667b3          	or	a5,a2,a3
    548c:	00c59593          	slli	a1,a1,0xc
    5490:	1e078063          	beqz	a5,5670 <pow_2>
    5494:	100007b7          	lui	a5,0x10000
    5498:	0046d693          	srli	a3,a3,0x4
    549c:	00f6e6b3          	or	a3,a3,a5
    54a0:	01865393          	srli	t2,a2,0x18
    54a4:	0076e6b3          	or	a3,a3,t2
    54a8:	00861613          	slli	a2,a2,0x8
    54ac:	0045d393          	srli	t2,a1,0x4
    54b0:	0077e7b3          	or	a5,a5,t2
    54b4:	01855393          	srli	t2,a0,0x18
    54b8:	0077e7b3          	or	a5,a5,t2
    54bc:	00851313          	slli	t1,a0,0x8
    54c0:	800003b7          	lui	t2,0x80000
    54c4:	0072f5b3          	and	a1,t0,t2
    54c8:	40d783b3          	sub	t2,a5,a3
    54cc:	0013b393          	seqz	t2,t2
    54d0:	00c332b3          	sltu	t0,t1,a2
    54d4:	0053f3b3          	and	t2,t2,t0
    54d8:	00d7b2b3          	sltu	t0,a5,a3
    54dc:	0053e3b3          	or	t2,t2,t0
    54e0:	3fe70713          	addi	a4,a4,1022
    54e4:	40770733          	sub	a4,a4,t2
    54e8:	00038a63          	beqz	t2,54fc <normal_case+0x80>
    54ec:	00165613          	srli	a2,a2,0x1
    54f0:	01f69293          	slli	t0,a3,0x1f
    54f4:	00566633          	or	a2,a2,t0
    54f8:	0016d693          	srli	a3,a3,0x1
    54fc:	00c332b3          	sltu	t0,t1,a2
    5500:	40c30333          	sub	t1,t1,a2
    5504:	40d787b3          	sub	a5,a5,a3
    5508:	405787b3          	sub	a5,a5,t0
    550c:	00165613          	srli	a2,a2,0x1
    5510:	01f69293          	slli	t0,a3,0x1f
    5514:	00566633          	or	a2,a2,t0
    5518:	0016d693          	srli	a3,a3,0x1
    551c:	00100537          	lui	a0,0x100
    5520:	000803b7          	lui	t2,0x80

00005524 <div_loop_start>:
    5524:	40d782b3          	sub	t0,a5,a3
    5528:	00c37463          	bgeu	t1,a2,5530 <div_loop_start+0xc>
    552c:	fff28293          	addi	t0,t0,-1
    5530:	0002c863          	bltz	t0,5540 <div_loop_start+0x1c>
    5534:	40c30333          	sub	t1,t1,a2
    5538:	00028793          	mv	a5,t0
    553c:	00756533          	or	a0,a0,t2
    5540:	00165613          	srli	a2,a2,0x1
    5544:	01f69293          	slli	t0,a3,0x1f
    5548:	00566633          	or	a2,a2,t0
    554c:	0016d693          	srli	a3,a3,0x1
    5550:	40d782b3          	sub	t0,a5,a3
    5554:	00c37463          	bgeu	t1,a2,555c <div_loop_start+0x38>
    5558:	fff28293          	addi	t0,t0,-1
    555c:	0002ca63          	bltz	t0,5570 <div_loop_start+0x4c>
    5560:	40c30333          	sub	t1,t1,a2
    5564:	00028793          	mv	a5,t0
    5568:	0013d293          	srli	t0,t2,0x1
    556c:	00556533          	or	a0,a0,t0
    5570:	00165613          	srli	a2,a2,0x1
    5574:	01f69293          	slli	t0,a3,0x1f
    5578:	00566633          	or	a2,a2,t0
    557c:	0016d693          	srli	a3,a3,0x1
    5580:	40d782b3          	sub	t0,a5,a3
    5584:	00c37463          	bgeu	t1,a2,558c <div_loop_start+0x68>
    5588:	fff28293          	addi	t0,t0,-1
    558c:	0002ca63          	bltz	t0,55a0 <div_loop_start+0x7c>
    5590:	40c30333          	sub	t1,t1,a2
    5594:	00028793          	mv	a5,t0
    5598:	0023d293          	srli	t0,t2,0x2
    559c:	00556533          	or	a0,a0,t0
    55a0:	00165613          	srli	a2,a2,0x1
    55a4:	01f69293          	slli	t0,a3,0x1f
    55a8:	00566633          	or	a2,a2,t0
    55ac:	0016d693          	srli	a3,a3,0x1
    55b0:	40d782b3          	sub	t0,a5,a3
    55b4:	00c37463          	bgeu	t1,a2,55bc <div_loop_start+0x98>
    55b8:	fff28293          	addi	t0,t0,-1
    55bc:	0002ca63          	bltz	t0,55d0 <div_loop_start+0xac>
    55c0:	40c30333          	sub	t1,t1,a2
    55c4:	00028793          	mv	a5,t0
    55c8:	0033d293          	srli	t0,t2,0x3
    55cc:	00556533          	or	a0,a0,t0
    55d0:	0067e2b3          	or	t0,a5,t1
    55d4:	04028463          	beqz	t0,561c <div_loop_exit>
    55d8:	00479793          	slli	a5,a5,0x4
    55dc:	01c35293          	srli	t0,t1,0x1c
    55e0:	0057e7b3          	or	a5,a5,t0
    55e4:	00431313          	slli	t1,t1,0x4
    55e8:	00369693          	slli	a3,a3,0x3
    55ec:	01d65293          	srli	t0,a2,0x1d
    55f0:	0056e6b3          	or	a3,a3,t0
    55f4:	00361613          	slli	a2,a2,0x3
    55f8:	0043d393          	srli	t2,t2,0x4
    55fc:	f20394e3          	bnez	t2,5524 <div_loop_start>
    5600:	001002b7          	lui	t0,0x100
    5604:	00b2f2b3          	and	t0,t0,a1
    5608:	02029463          	bnez	t0,5630 <checks>
    560c:	00a5e5b3          	or	a1,a1,a0
    5610:	00000513          	li	a0,0
    5614:	800003b7          	lui	t2,0x80000
    5618:	f0dff06f          	j	5524 <div_loop_start>

0000561c <div_loop_exit>:
    561c:	001002b7          	lui	t0,0x100
    5620:	00b2f2b3          	and	t0,t0,a1
    5624:	00029663          	bnez	t0,5630 <checks>
    5628:	00a5e5b3          	or	a1,a1,a0
    562c:	00000513          	li	a0,0

00005630 <checks>:
    5630:	f0370393          	addi	t2,a4,-253
    5634:	00e3f663          	bgeu	t2,a4,5640 <exp_round>
    5638:	70000293          	li	t0,1792
    563c:	0672e063          	bltu	t0,t2,569c <und_ov_flow>

00005640 <exp_round>:
    5640:	01471713          	slli	a4,a4,0x14
    5644:	00e585b3          	add	a1,a1,a4
    5648:	02d7e263          	bltu	a5,a3,566c <exit>
    564c:	00f6ea63          	bltu	a3,a5,5660 <round_up>
    5650:	00c36e63          	bltu	t1,a2,566c <exit>
    5654:	00666663          	bltu	a2,t1,5660 <round_up>
    5658:	01f51293          	slli	t0,a0,0x1f
    565c:	00028863          	beqz	t0,566c <exit>

00005660 <round_up>:
    5660:	00150513          	addi	a0,a0,1 # 100001 <__stack_size+0x1>
    5664:	00153293          	seqz	t0,a0
    5668:	005585b3          	add	a1,a1,t0

0000566c <exit>:
    566c:	00008067          	ret

00005670 <pow_2>:
    5670:	800003b7          	lui	t2,0x80000
    5674:	0072f2b3          	and	t0,t0,t2
    5678:	00c5d593          	srli	a1,a1,0xc
    567c:	0055e5b3          	or	a1,a1,t0
    5680:	3ff70713          	addi	a4,a4,1023
    5684:	02e05463          	blez	a4,56ac <signed_zero>
    5688:	7ff72293          	slti	t0,a4,2047
    568c:	04028a63          	beqz	t0,56e0 <ovf>
    5690:	01471713          	slli	a4,a4,0x14
    5694:	00e5e5b3          	or	a1,a1,a4
    5698:	00008067          	ret

0000569c <und_ov_flow>:
    569c:	0472c263          	blt	t0,t2,56e0 <ovf>
    56a0:	00c0006f          	j	56ac <signed_zero>

000056a4 <zero_denormal>:
    56a4:	04030a63          	beqz	t1,56f8 <div_by_zero>

000056a8 <zero>:
    56a8:	00d5c5b3          	xor	a1,a1,a3

000056ac <signed_zero>:
    56ac:	01f5d593          	srli	a1,a1,0x1f
    56b0:	01f59593          	slli	a1,a1,0x1f
    56b4:	00000513          	li	a0,0
    56b8:	00008067          	ret

000056bc <inf_nan>:
    56bc:	00a032b3          	snez	t0,a0
    56c0:	00e2e2b3          	or	t0,t0,a4
    56c4:	0257ec63          	bltu	a5,t0,56fc <nan>
    56c8:	00c032b3          	snez	t0,a2
    56cc:	0062e2b3          	or	t0,t0,t1
    56d0:	0257e663          	bltu	a5,t0,56fc <nan>
    56d4:	02670463          	beq	a4,t1,56fc <nan>
    56d8:	fcf308e3          	beq	t1,a5,56a8 <zero>

000056dc <inf>:
    56dc:	00d5c5b3          	xor	a1,a1,a3

000056e0 <ovf>:
    56e0:	7ff006b7          	lui	a3,0x7ff00
    56e4:	01f5d593          	srli	a1,a1,0x1f
    56e8:	01f59593          	slli	a1,a1,0x1f
    56ec:	00d5e5b3          	or	a1,a1,a3
    56f0:	00000513          	li	a0,0
    56f4:	00008067          	ret

000056f8 <div_by_zero>:
    56f8:	fe0712e3          	bnez	a4,56dc <inf>

000056fc <nan>:
    56fc:	7ff805b7          	lui	a1,0x7ff80
    5700:	00000513          	li	a0,0
    5704:	00008067          	ret

00005708 <__fixdfsi>:
    5708:	80000737          	lui	a4,0x80000
    570c:	41f5d793          	srai	a5,a1,0x1f
    5710:	00159593          	slli	a1,a1,0x1
    5714:	0155d613          	srli	a2,a1,0x15
    5718:	c0160613          	addi	a2,a2,-1023
    571c:	02064e63          	bltz	a2,5758 <undflow>
    5720:	40c00633          	neg	a2,a2
    5724:	01f60613          	addi	a2,a2,31
    5728:	02c05263          	blez	a2,574c <ovflow>
    572c:	00a59593          	slli	a1,a1,0xa
    5730:	01555513          	srli	a0,a0,0x15
    5734:	00a5e5b3          	or	a1,a1,a0
    5738:	00e5e5b3          	or	a1,a1,a4
    573c:	00c5d533          	srl	a0,a1,a2
    5740:	00f54533          	xor	a0,a0,a5
    5744:	40f50533          	sub	a0,a0,a5
    5748:	00008067          	ret

0000574c <ovflow>:
    574c:	fff70513          	addi	a0,a4,-1 # 7fffffff <_stack_end+0x7fef9877>
    5750:	00f54533          	xor	a0,a0,a5
    5754:	00008067          	ret

00005758 <undflow>:
    5758:	00000513          	li	a0,0
    575c:	00008067          	ret

00005760 <__fixunsdfsi>:
    5760:	04b05263          	blez	a1,57a4 <undflow>
    5764:	00159593          	slli	a1,a1,0x1
    5768:	0155d613          	srli	a2,a1,0x15
    576c:	c0160613          	addi	a2,a2,-1023
    5770:	02064a63          	bltz	a2,57a4 <undflow>
    5774:	40c00633          	neg	a2,a2
    5778:	01f60613          	addi	a2,a2,31
    577c:	02064063          	bltz	a2,579c <ovflow>
    5780:	00a59593          	slli	a1,a1,0xa
    5784:	01555513          	srli	a0,a0,0x15
    5788:	00a5e5b3          	or	a1,a1,a0
    578c:	80000737          	lui	a4,0x80000
    5790:	00e5e5b3          	or	a1,a1,a4
    5794:	00c5d533          	srl	a0,a1,a2
    5798:	00008067          	ret

0000579c <ovflow>:
    579c:	fff00513          	li	a0,-1
    57a0:	00008067          	ret

000057a4 <undflow>:
    57a4:	00000513          	li	a0,0
    57a8:	00008067          	ret

000057ac <__floatsidf>:
    57ac:	41f55793          	srai	a5,a0,0x1f
    57b0:	00f545b3          	xor	a1,a0,a5
    57b4:	40f585b3          	sub	a1,a1,a5
    57b8:	02050863          	beqz	a0,57e8 <exit>
    57bc:	01f79793          	slli	a5,a5,0x1f
    57c0:	41d00613          	li	a2,1053
    57c4:	0005c863          	bltz	a1,57d4 <__floatsidf+0x28>
    57c8:	fff60613          	addi	a2,a2,-1
    57cc:	00159593          	slli	a1,a1,0x1
    57d0:	feb04ce3          	bgtz	a1,57c8 <__floatsidf+0x1c>
    57d4:	01559513          	slli	a0,a1,0x15
    57d8:	00b5d593          	srli	a1,a1,0xb
    57dc:	01461613          	slli	a2,a2,0x14
    57e0:	00c585b3          	add	a1,a1,a2
    57e4:	00f5e5b3          	or	a1,a1,a5

000057e8 <exit>:
    57e8:	00008067          	ret

000057ec <__gedf2>:
